(lp1
(I0
(lp2
S'/data2/chengxuz/Dataset/TFRecord_Imagenet_standard/image_label_full/train-00000-of-01024'
p3
aS'/data2/chengxuz/Dataset/TFRecord_Imagenet_standard/image_label_full/train-00001-of-01024'
p4
aS'/data2/chengxuz/Dataset/TFRecord_Imagenet_standard/image_label_full/train-00002-of-01024'
p5
aS'/data2/chengxuz/Dataset/TFRecord_Imagenet_standard/image_label_full/train-00003-of-01024'
p6
aS'/data2/chengxuz/Dataset/TFRecord_Imagenet_standard/image_label_full/train-00004-of-01024'
p7
aS'/data2/chengxuz/Dataset/TFRecord_Imagenet_standard/image_label_full/train-00005-of-01024'
p8
aS'/data2/chengxuz/Dataset/TFRecord_Imagenet_standard/image_label_full/train-00006-of-01024'
p9
aS'/data2/chengxuz/Dataset/TFRecord_Imagenet_standard/image_label_full/train-00007-of-01024'
p10
aS'/data2/chengxuz/Dataset/TFRecord_Imagenet_standard/image_label_full/train-00008-of-01024'
p11
aS'/data2/chengxuz/Dataset/TFRecord_Imagenet_standard/image_label_full/train-00009-of-01024'
p12
aS'/data2/chengxuz/Dataset/TFRecord_Imagenet_standard/image_label_full/train-00010-of-01024'
p13
aS'/data2/chengxuz/Dataset/TFRecord_Imagenet_standard/image_label_full/train-00011-of-01024'
p14
aS'/data2/chengxuz/Dataset/TFRecord_Imagenet_standard/image_label_full/train-00012-of-01024'
p15
aS'/data2/chengxuz/Dataset/TFRecord_Imagenet_standard/image_label_full/train-00013-of-01024'
p16
aS'/data2/chengxuz/Dataset/TFRecord_Imagenet_standard/image_label_full/train-00014-of-01024'
p17
aS'/data2/chengxuz/Dataset/TFRecord_Imagenet_standard/image_label_full/train-00015-of-01024'
p18
aS'/data2/chengxuz/Dataset/TFRecord_Imagenet_standard/image_label_full/train-00016-of-01024'
p19
aS'/data2/chengxuz/Dataset/TFRecord_Imagenet_standard/image_label_full/train-00017-of-01024'
p20
aS'/data2/chengxuz/Dataset/TFRecord_Imagenet_standard/image_label_full/train-00018-of-01024'
p21
aS'/data2/chengxuz/Dataset/TFRecord_Imagenet_standard/image_label_full/train-00019-of-01024'
p22
aS'/data2/chengxuz/Dataset/TFRecord_Imagenet_standard/image_label_full/train-00020-of-01024'
p23
aS'/data2/chengxuz/Dataset/TFRecord_Imagenet_standard/image_label_full/train-00021-of-01024'
p24
aS'/data2/chengxuz/Dataset/TFRecord_Imagenet_standard/image_label_full/train-00022-of-01024'
p25
aS'/data2/chengxuz/Dataset/TFRecord_Imagenet_standard/image_label_full/train-00023-of-01024'
p26
aS'/data2/chengxuz/Dataset/TFRecord_Imagenet_standard/image_label_full/train-00024-of-01024'
p27
aS'/data2/chengxuz/Dataset/TFRecord_Imagenet_standard/image_label_full/train-00025-of-01024'
p28
aS'/data2/chengxuz/Dataset/TFRecord_Imagenet_standard/image_label_full/train-00026-of-01024'
p29
aS'/data2/chengxuz/Dataset/TFRecord_Imagenet_standard/image_label_full/train-00027-of-01024'
p30
aS'/data2/chengxuz/Dataset/TFRecord_Imagenet_standard/image_label_full/train-00028-of-01024'
p31
aS'/data2/chengxuz/Dataset/TFRecord_Imagenet_standard/image_label_full/train-00029-of-01024'
p32
aS'/data2/chengxuz/Dataset/TFRecord_Imagenet_standard/image_label_full/train-00030-of-01024'
p33
aS'/data2/chengxuz/Dataset/TFRecord_Imagenet_standard/image_label_full/train-00031-of-01024'
p34
aS'/data2/chengxuz/Dataset/TFRecord_Imagenet_standard/image_label_full/train-00032-of-01024'
p35
aS'/data2/chengxuz/Dataset/TFRecord_Imagenet_standard/image_label_full/train-00033-of-01024'
p36
aS'/data2/chengxuz/Dataset/TFRecord_Imagenet_standard/image_label_full/train-00034-of-01024'
p37
aS'/data2/chengxuz/Dataset/TFRecord_Imagenet_standard/image_label_full/train-00035-of-01024'
p38
aS'/data2/chengxuz/Dataset/TFRecord_Imagenet_standard/image_label_full/train-00036-of-01024'
p39
aS'/data2/chengxuz/Dataset/TFRecord_Imagenet_standard/image_label_full/train-00037-of-01024'
p40
aS'/data2/chengxuz/Dataset/TFRecord_Imagenet_standard/image_label_full/train-00038-of-01024'
p41
aS'/data2/chengxuz/Dataset/TFRecord_Imagenet_standard/image_label_full/train-00039-of-01024'
p42
aS'/data2/chengxuz/Dataset/TFRecord_Imagenet_standard/image_label_full/train-00040-of-01024'
p43
aS'/data2/chengxuz/Dataset/TFRecord_Imagenet_standard/image_label_full/train-00041-of-01024'
p44
aS'/data2/chengxuz/Dataset/TFRecord_Imagenet_standard/image_label_full/train-00042-of-01024'
p45
aS'/data2/chengxuz/Dataset/TFRecord_Imagenet_standard/image_label_full/train-00043-of-01024'
p46
aS'/data2/chengxuz/Dataset/TFRecord_Imagenet_standard/image_label_full/train-00044-of-01024'
p47
aS'/data2/chengxuz/Dataset/TFRecord_Imagenet_standard/image_label_full/train-00045-of-01024'
p48
aS'/data2/chengxuz/Dataset/TFRecord_Imagenet_standard/image_label_full/train-00046-of-01024'
p49
aS'/data2/chengxuz/Dataset/TFRecord_Imagenet_standard/image_label_full/train-00047-of-01024'
p50
aS'/data2/chengxuz/Dataset/TFRecord_Imagenet_standard/image_label_full/train-00048-of-01024'
p51
aS'/data2/chengxuz/Dataset/TFRecord_Imagenet_standard/image_label_full/train-00049-of-01024'
p52
aS'/data2/chengxuz/Dataset/TFRecord_Imagenet_standard/image_label_full/train-00050-of-01024'
p53
aS'/data2/chengxuz/Dataset/TFRecord_Imagenet_standard/image_label_full/train-00051-of-01024'
p54
aS'/data2/chengxuz/Dataset/TFRecord_Imagenet_standard/image_label_full/train-00052-of-01024'
p55
aS'/data2/chengxuz/Dataset/TFRecord_Imagenet_standard/image_label_full/train-00053-of-01024'
p56
aS'/data2/chengxuz/Dataset/TFRecord_Imagenet_standard/image_label_full/train-00054-of-01024'
p57
aS'/data2/chengxuz/Dataset/TFRecord_Imagenet_standard/image_label_full/train-00055-of-01024'
p58
aS'/data2/chengxuz/Dataset/TFRecord_Imagenet_standard/image_label_full/train-00056-of-01024'
p59
aS'/data2/chengxuz/Dataset/TFRecord_Imagenet_standard/image_label_full/train-00057-of-01024'
p60
aS'/data2/chengxuz/Dataset/TFRecord_Imagenet_standard/image_label_full/train-00058-of-01024'
p61
aS'/data2/chengxuz/Dataset/TFRecord_Imagenet_standard/image_label_full/train-00059-of-01024'
p62
aS'/data2/chengxuz/Dataset/TFRecord_Imagenet_standard/image_label_full/train-00060-of-01024'
p63
aS'/data2/chengxuz/Dataset/TFRecord_Imagenet_standard/image_label_full/train-00061-of-01024'
p64
aS'/data2/chengxuz/Dataset/TFRecord_Imagenet_standard/image_label_full/train-00062-of-01024'
p65
aS'/data2/chengxuz/Dataset/TFRecord_Imagenet_standard/image_label_full/train-00063-of-01024'
p66
aS'/data2/chengxuz/Dataset/TFRecord_Imagenet_standard/image_label_full/train-00064-of-01024'
p67
aS'/data2/chengxuz/Dataset/TFRecord_Imagenet_standard/image_label_full/train-00065-of-01024'
p68
aS'/data2/chengxuz/Dataset/TFRecord_Imagenet_standard/image_label_full/train-00066-of-01024'
p69
aS'/data2/chengxuz/Dataset/TFRecord_Imagenet_standard/image_label_full/train-00067-of-01024'
p70
aS'/data2/chengxuz/Dataset/TFRecord_Imagenet_standard/image_label_full/train-00068-of-01024'
p71
aS'/data2/chengxuz/Dataset/TFRecord_Imagenet_standard/image_label_full/train-00069-of-01024'
p72
aS'/data2/chengxuz/Dataset/TFRecord_Imagenet_standard/image_label_full/train-00070-of-01024'
p73
aS'/data2/chengxuz/Dataset/TFRecord_Imagenet_standard/image_label_full/train-00071-of-01024'
p74
aS'/data2/chengxuz/Dataset/TFRecord_Imagenet_standard/image_label_full/train-00072-of-01024'
p75
aS'/data2/chengxuz/Dataset/TFRecord_Imagenet_standard/image_label_full/train-00073-of-01024'
p76
aS'/data2/chengxuz/Dataset/TFRecord_Imagenet_standard/image_label_full/train-00074-of-01024'
p77
aS'/data2/chengxuz/Dataset/TFRecord_Imagenet_standard/image_label_full/train-00075-of-01024'
p78
aS'/data2/chengxuz/Dataset/TFRecord_Imagenet_standard/image_label_full/train-00076-of-01024'
p79
aS'/data2/chengxuz/Dataset/TFRecord_Imagenet_standard/image_label_full/train-00077-of-01024'
p80
aS'/data2/chengxuz/Dataset/TFRecord_Imagenet_standard/image_label_full/train-00078-of-01024'
p81
aS'/data2/chengxuz/Dataset/TFRecord_Imagenet_standard/image_label_full/train-00079-of-01024'
p82
aS'/data2/chengxuz/Dataset/TFRecord_Imagenet_standard/image_label_full/train-00080-of-01024'
p83
aS'/data2/chengxuz/Dataset/TFRecord_Imagenet_standard/image_label_full/train-00081-of-01024'
p84
aS'/data2/chengxuz/Dataset/TFRecord_Imagenet_standard/image_label_full/train-00082-of-01024'
p85
aS'/data2/chengxuz/Dataset/TFRecord_Imagenet_standard/image_label_full/train-00083-of-01024'
p86
aS'/data2/chengxuz/Dataset/TFRecord_Imagenet_standard/image_label_full/train-00084-of-01024'
p87
aS'/data2/chengxuz/Dataset/TFRecord_Imagenet_standard/image_label_full/train-00085-of-01024'
p88
aS'/data2/chengxuz/Dataset/TFRecord_Imagenet_standard/image_label_full/train-00086-of-01024'
p89
aS'/data2/chengxuz/Dataset/TFRecord_Imagenet_standard/image_label_full/train-00087-of-01024'
p90
aS'/data2/chengxuz/Dataset/TFRecord_Imagenet_standard/image_label_full/train-00088-of-01024'
p91
aS'/data2/chengxuz/Dataset/TFRecord_Imagenet_standard/image_label_full/train-00089-of-01024'
p92
aS'/data2/chengxuz/Dataset/TFRecord_Imagenet_standard/image_label_full/train-00090-of-01024'
p93
aS'/data2/chengxuz/Dataset/TFRecord_Imagenet_standard/image_label_full/train-00091-of-01024'
p94
aS'/data2/chengxuz/Dataset/TFRecord_Imagenet_standard/image_label_full/train-00092-of-01024'
p95
aS'/data2/chengxuz/Dataset/TFRecord_Imagenet_standard/image_label_full/train-00093-of-01024'
p96
aS'/data2/chengxuz/Dataset/TFRecord_Imagenet_standard/image_label_full/train-00094-of-01024'
p97
aS'/data2/chengxuz/Dataset/TFRecord_Imagenet_standard/image_label_full/train-00095-of-01024'
p98
aS'/data2/chengxuz/Dataset/TFRecord_Imagenet_standard/image_label_full/train-00096-of-01024'
p99
aS'/data2/chengxuz/Dataset/TFRecord_Imagenet_standard/image_label_full/train-00097-of-01024'
p100
aS'/data2/chengxuz/Dataset/TFRecord_Imagenet_standard/image_label_full/train-00098-of-01024'
p101
aS'/data2/chengxuz/Dataset/TFRecord_Imagenet_standard/image_label_full/train-00099-of-01024'
p102
aS'/data2/chengxuz/Dataset/TFRecord_Imagenet_standard/image_label_full/train-00100-of-01024'
p103
aS'/data2/chengxuz/Dataset/TFRecord_Imagenet_standard/image_label_full/train-00101-of-01024'
p104
atp105
a(I127615
(lp106
S'/data2/chengxuz/Dataset/TFRecord_Imagenet_standard/image_label_full/train-00102-of-01024'
p107
aS'/data2/chengxuz/Dataset/TFRecord_Imagenet_standard/image_label_full/train-00103-of-01024'
p108
aS'/data2/chengxuz/Dataset/TFRecord_Imagenet_standard/image_label_full/train-00104-of-01024'
p109
aS'/data2/chengxuz/Dataset/TFRecord_Imagenet_standard/image_label_full/train-00105-of-01024'
p110
aS'/data2/chengxuz/Dataset/TFRecord_Imagenet_standard/image_label_full/train-00106-of-01024'
p111
aS'/data2/chengxuz/Dataset/TFRecord_Imagenet_standard/image_label_full/train-00107-of-01024'
p112
aS'/data2/chengxuz/Dataset/TFRecord_Imagenet_standard/image_label_full/train-00108-of-01024'
p113
aS'/data2/chengxuz/Dataset/TFRecord_Imagenet_standard/image_label_full/train-00109-of-01024'
p114
aS'/data2/chengxuz/Dataset/TFRecord_Imagenet_standard/image_label_full/train-00110-of-01024'
p115
aS'/data2/chengxuz/Dataset/TFRecord_Imagenet_standard/image_label_full/train-00111-of-01024'
p116
aS'/data2/chengxuz/Dataset/TFRecord_Imagenet_standard/image_label_full/train-00112-of-01024'
p117
aS'/data2/chengxuz/Dataset/TFRecord_Imagenet_standard/image_label_full/train-00113-of-01024'
p118
aS'/data2/chengxuz/Dataset/TFRecord_Imagenet_standard/image_label_full/train-00114-of-01024'
p119
aS'/data2/chengxuz/Dataset/TFRecord_Imagenet_standard/image_label_full/train-00115-of-01024'
p120
aS'/data2/chengxuz/Dataset/TFRecord_Imagenet_standard/image_label_full/train-00116-of-01024'
p121
aS'/data2/chengxuz/Dataset/TFRecord_Imagenet_standard/image_label_full/train-00117-of-01024'
p122
aS'/data2/chengxuz/Dataset/TFRecord_Imagenet_standard/image_label_full/train-00118-of-01024'
p123
aS'/data2/chengxuz/Dataset/TFRecord_Imagenet_standard/image_label_full/train-00119-of-01024'
p124
aS'/data2/chengxuz/Dataset/TFRecord_Imagenet_standard/image_label_full/train-00120-of-01024'
p125
aS'/data2/chengxuz/Dataset/TFRecord_Imagenet_standard/image_label_full/train-00121-of-01024'
p126
aS'/data2/chengxuz/Dataset/TFRecord_Imagenet_standard/image_label_full/train-00122-of-01024'
p127
aS'/data2/chengxuz/Dataset/TFRecord_Imagenet_standard/image_label_full/train-00123-of-01024'
p128
aS'/data2/chengxuz/Dataset/TFRecord_Imagenet_standard/image_label_full/train-00124-of-01024'
p129
aS'/data2/chengxuz/Dataset/TFRecord_Imagenet_standard/image_label_full/train-00125-of-01024'
p130
aS'/data2/chengxuz/Dataset/TFRecord_Imagenet_standard/image_label_full/train-00126-of-01024'
p131
aS'/data2/chengxuz/Dataset/TFRecord_Imagenet_standard/image_label_full/train-00127-of-01024'
p132
aS'/data2/chengxuz/Dataset/TFRecord_Imagenet_standard/image_label_full/train-00128-of-01024'
p133
aS'/data2/chengxuz/Dataset/TFRecord_Imagenet_standard/image_label_full/train-00129-of-01024'
p134
aS'/data2/chengxuz/Dataset/TFRecord_Imagenet_standard/image_label_full/train-00130-of-01024'
p135
aS'/data2/chengxuz/Dataset/TFRecord_Imagenet_standard/image_label_full/train-00131-of-01024'
p136
aS'/data2/chengxuz/Dataset/TFRecord_Imagenet_standard/image_label_full/train-00132-of-01024'
p137
aS'/data2/chengxuz/Dataset/TFRecord_Imagenet_standard/image_label_full/train-00133-of-01024'
p138
aS'/data2/chengxuz/Dataset/TFRecord_Imagenet_standard/image_label_full/train-00134-of-01024'
p139
aS'/data2/chengxuz/Dataset/TFRecord_Imagenet_standard/image_label_full/train-00135-of-01024'
p140
aS'/data2/chengxuz/Dataset/TFRecord_Imagenet_standard/image_label_full/train-00136-of-01024'
p141
aS'/data2/chengxuz/Dataset/TFRecord_Imagenet_standard/image_label_full/train-00137-of-01024'
p142
aS'/data2/chengxuz/Dataset/TFRecord_Imagenet_standard/image_label_full/train-00138-of-01024'
p143
aS'/data2/chengxuz/Dataset/TFRecord_Imagenet_standard/image_label_full/train-00139-of-01024'
p144
aS'/data2/chengxuz/Dataset/TFRecord_Imagenet_standard/image_label_full/train-00140-of-01024'
p145
aS'/data2/chengxuz/Dataset/TFRecord_Imagenet_standard/image_label_full/train-00141-of-01024'
p146
aS'/data2/chengxuz/Dataset/TFRecord_Imagenet_standard/image_label_full/train-00142-of-01024'
p147
aS'/data2/chengxuz/Dataset/TFRecord_Imagenet_standard/image_label_full/train-00143-of-01024'
p148
aS'/data2/chengxuz/Dataset/TFRecord_Imagenet_standard/image_label_full/train-00144-of-01024'
p149
aS'/data2/chengxuz/Dataset/TFRecord_Imagenet_standard/image_label_full/train-00145-of-01024'
p150
aS'/data2/chengxuz/Dataset/TFRecord_Imagenet_standard/image_label_full/train-00146-of-01024'
p151
aS'/data2/chengxuz/Dataset/TFRecord_Imagenet_standard/image_label_full/train-00147-of-01024'
p152
aS'/data2/chengxuz/Dataset/TFRecord_Imagenet_standard/image_label_full/train-00148-of-01024'
p153
aS'/data2/chengxuz/Dataset/TFRecord_Imagenet_standard/image_label_full/train-00149-of-01024'
p154
aS'/data2/chengxuz/Dataset/TFRecord_Imagenet_standard/image_label_full/train-00150-of-01024'
p155
aS'/data2/chengxuz/Dataset/TFRecord_Imagenet_standard/image_label_full/train-00151-of-01024'
p156
aS'/data2/chengxuz/Dataset/TFRecord_Imagenet_standard/image_label_full/train-00152-of-01024'
p157
aS'/data2/chengxuz/Dataset/TFRecord_Imagenet_standard/image_label_full/train-00153-of-01024'
p158
aS'/data2/chengxuz/Dataset/TFRecord_Imagenet_standard/image_label_full/train-00154-of-01024'
p159
aS'/data2/chengxuz/Dataset/TFRecord_Imagenet_standard/image_label_full/train-00155-of-01024'
p160
aS'/data2/chengxuz/Dataset/TFRecord_Imagenet_standard/image_label_full/train-00156-of-01024'
p161
aS'/data2/chengxuz/Dataset/TFRecord_Imagenet_standard/image_label_full/train-00157-of-01024'
p162
aS'/data2/chengxuz/Dataset/TFRecord_Imagenet_standard/image_label_full/train-00158-of-01024'
p163
aS'/data2/chengxuz/Dataset/TFRecord_Imagenet_standard/image_label_full/train-00159-of-01024'
p164
aS'/data2/chengxuz/Dataset/TFRecord_Imagenet_standard/image_label_full/train-00160-of-01024'
p165
aS'/data2/chengxuz/Dataset/TFRecord_Imagenet_standard/image_label_full/train-00161-of-01024'
p166
aS'/data2/chengxuz/Dataset/TFRecord_Imagenet_standard/image_label_full/train-00162-of-01024'
p167
aS'/data2/chengxuz/Dataset/TFRecord_Imagenet_standard/image_label_full/train-00163-of-01024'
p168
aS'/data2/chengxuz/Dataset/TFRecord_Imagenet_standard/image_label_full/train-00164-of-01024'
p169
aS'/data2/chengxuz/Dataset/TFRecord_Imagenet_standard/image_label_full/train-00165-of-01024'
p170
aS'/data2/chengxuz/Dataset/TFRecord_Imagenet_standard/image_label_full/train-00166-of-01024'
p171
aS'/data2/chengxuz/Dataset/TFRecord_Imagenet_standard/image_label_full/train-00167-of-01024'
p172
aS'/data2/chengxuz/Dataset/TFRecord_Imagenet_standard/image_label_full/train-00168-of-01024'
p173
aS'/data2/chengxuz/Dataset/TFRecord_Imagenet_standard/image_label_full/train-00169-of-01024'
p174
aS'/data2/chengxuz/Dataset/TFRecord_Imagenet_standard/image_label_full/train-00170-of-01024'
p175
aS'/data2/chengxuz/Dataset/TFRecord_Imagenet_standard/image_label_full/train-00171-of-01024'
p176
aS'/data2/chengxuz/Dataset/TFRecord_Imagenet_standard/image_label_full/train-00172-of-01024'
p177
aS'/data2/chengxuz/Dataset/TFRecord_Imagenet_standard/image_label_full/train-00173-of-01024'
p178
aS'/data2/chengxuz/Dataset/TFRecord_Imagenet_standard/image_label_full/train-00174-of-01024'
p179
aS'/data2/chengxuz/Dataset/TFRecord_Imagenet_standard/image_label_full/train-00175-of-01024'
p180
aS'/data2/chengxuz/Dataset/TFRecord_Imagenet_standard/image_label_full/train-00176-of-01024'
p181
aS'/data2/chengxuz/Dataset/TFRecord_Imagenet_standard/image_label_full/train-00177-of-01024'
p182
aS'/data2/chengxuz/Dataset/TFRecord_Imagenet_standard/image_label_full/train-00178-of-01024'
p183
aS'/data2/chengxuz/Dataset/TFRecord_Imagenet_standard/image_label_full/train-00179-of-01024'
p184
aS'/data2/chengxuz/Dataset/TFRecord_Imagenet_standard/image_label_full/train-00180-of-01024'
p185
aS'/data2/chengxuz/Dataset/TFRecord_Imagenet_standard/image_label_full/train-00181-of-01024'
p186
aS'/data2/chengxuz/Dataset/TFRecord_Imagenet_standard/image_label_full/train-00182-of-01024'
p187
aS'/data2/chengxuz/Dataset/TFRecord_Imagenet_standard/image_label_full/train-00183-of-01024'
p188
aS'/data2/chengxuz/Dataset/TFRecord_Imagenet_standard/image_label_full/train-00184-of-01024'
p189
aS'/data2/chengxuz/Dataset/TFRecord_Imagenet_standard/image_label_full/train-00185-of-01024'
p190
aS'/data2/chengxuz/Dataset/TFRecord_Imagenet_standard/image_label_full/train-00186-of-01024'
p191
aS'/data2/chengxuz/Dataset/TFRecord_Imagenet_standard/image_label_full/train-00187-of-01024'
p192
aS'/data2/chengxuz/Dataset/TFRecord_Imagenet_standard/image_label_full/train-00188-of-01024'
p193
aS'/data2/chengxuz/Dataset/TFRecord_Imagenet_standard/image_label_full/train-00189-of-01024'
p194
aS'/data2/chengxuz/Dataset/TFRecord_Imagenet_standard/image_label_full/train-00190-of-01024'
p195
aS'/data2/chengxuz/Dataset/TFRecord_Imagenet_standard/image_label_full/train-00191-of-01024'
p196
aS'/data2/chengxuz/Dataset/TFRecord_Imagenet_standard/image_label_full/train-00192-of-01024'
p197
aS'/data2/chengxuz/Dataset/TFRecord_Imagenet_standard/image_label_full/train-00193-of-01024'
p198
aS'/data2/chengxuz/Dataset/TFRecord_Imagenet_standard/image_label_full/train-00194-of-01024'
p199
aS'/data2/chengxuz/Dataset/TFRecord_Imagenet_standard/image_label_full/train-00195-of-01024'
p200
aS'/data2/chengxuz/Dataset/TFRecord_Imagenet_standard/image_label_full/train-00196-of-01024'
p201
aS'/data2/chengxuz/Dataset/TFRecord_Imagenet_standard/image_label_full/train-00197-of-01024'
p202
aS'/data2/chengxuz/Dataset/TFRecord_Imagenet_standard/image_label_full/train-00198-of-01024'
p203
aS'/data2/chengxuz/Dataset/TFRecord_Imagenet_standard/image_label_full/train-00199-of-01024'
p204
aS'/data2/chengxuz/Dataset/TFRecord_Imagenet_standard/image_label_full/train-00200-of-01024'
p205
aS'/data2/chengxuz/Dataset/TFRecord_Imagenet_standard/image_label_full/train-00201-of-01024'
p206
aS'/data2/chengxuz/Dataset/TFRecord_Imagenet_standard/image_label_full/train-00202-of-01024'
p207
aS'/data2/chengxuz/Dataset/TFRecord_Imagenet_standard/image_label_full/train-00203-of-01024'
p208
atp209
a(I255231
(lp210
S'/data2/chengxuz/Dataset/TFRecord_Imagenet_standard/image_label_full/train-00204-of-01024'
p211
aS'/data2/chengxuz/Dataset/TFRecord_Imagenet_standard/image_label_full/train-00205-of-01024'
p212
aS'/data2/chengxuz/Dataset/TFRecord_Imagenet_standard/image_label_full/train-00206-of-01024'
p213
aS'/data2/chengxuz/Dataset/TFRecord_Imagenet_standard/image_label_full/train-00207-of-01024'
p214
aS'/data2/chengxuz/Dataset/TFRecord_Imagenet_standard/image_label_full/train-00208-of-01024'
p215
aS'/data2/chengxuz/Dataset/TFRecord_Imagenet_standard/image_label_full/train-00209-of-01024'
p216
aS'/data2/chengxuz/Dataset/TFRecord_Imagenet_standard/image_label_full/train-00210-of-01024'
p217
aS'/data2/chengxuz/Dataset/TFRecord_Imagenet_standard/image_label_full/train-00211-of-01024'
p218
aS'/data2/chengxuz/Dataset/TFRecord_Imagenet_standard/image_label_full/train-00212-of-01024'
p219
aS'/data2/chengxuz/Dataset/TFRecord_Imagenet_standard/image_label_full/train-00213-of-01024'
p220
aS'/data2/chengxuz/Dataset/TFRecord_Imagenet_standard/image_label_full/train-00214-of-01024'
p221
aS'/data2/chengxuz/Dataset/TFRecord_Imagenet_standard/image_label_full/train-00215-of-01024'
p222
aS'/data2/chengxuz/Dataset/TFRecord_Imagenet_standard/image_label_full/train-00216-of-01024'
p223
aS'/data2/chengxuz/Dataset/TFRecord_Imagenet_standard/image_label_full/train-00217-of-01024'
p224
aS'/data2/chengxuz/Dataset/TFRecord_Imagenet_standard/image_label_full/train-00218-of-01024'
p225
aS'/data2/chengxuz/Dataset/TFRecord_Imagenet_standard/image_label_full/train-00219-of-01024'
p226
aS'/data2/chengxuz/Dataset/TFRecord_Imagenet_standard/image_label_full/train-00220-of-01024'
p227
aS'/data2/chengxuz/Dataset/TFRecord_Imagenet_standard/image_label_full/train-00221-of-01024'
p228
aS'/data2/chengxuz/Dataset/TFRecord_Imagenet_standard/image_label_full/train-00222-of-01024'
p229
aS'/data2/chengxuz/Dataset/TFRecord_Imagenet_standard/image_label_full/train-00223-of-01024'
p230
aS'/data2/chengxuz/Dataset/TFRecord_Imagenet_standard/image_label_full/train-00224-of-01024'
p231
aS'/data2/chengxuz/Dataset/TFRecord_Imagenet_standard/image_label_full/train-00225-of-01024'
p232
aS'/data2/chengxuz/Dataset/TFRecord_Imagenet_standard/image_label_full/train-00226-of-01024'
p233
aS'/data2/chengxuz/Dataset/TFRecord_Imagenet_standard/image_label_full/train-00227-of-01024'
p234
aS'/data2/chengxuz/Dataset/TFRecord_Imagenet_standard/image_label_full/train-00228-of-01024'
p235
aS'/data2/chengxuz/Dataset/TFRecord_Imagenet_standard/image_label_full/train-00229-of-01024'
p236
aS'/data2/chengxuz/Dataset/TFRecord_Imagenet_standard/image_label_full/train-00230-of-01024'
p237
aS'/data2/chengxuz/Dataset/TFRecord_Imagenet_standard/image_label_full/train-00231-of-01024'
p238
aS'/data2/chengxuz/Dataset/TFRecord_Imagenet_standard/image_label_full/train-00232-of-01024'
p239
aS'/data2/chengxuz/Dataset/TFRecord_Imagenet_standard/image_label_full/train-00233-of-01024'
p240
aS'/data2/chengxuz/Dataset/TFRecord_Imagenet_standard/image_label_full/train-00234-of-01024'
p241
aS'/data2/chengxuz/Dataset/TFRecord_Imagenet_standard/image_label_full/train-00235-of-01024'
p242
aS'/data2/chengxuz/Dataset/TFRecord_Imagenet_standard/image_label_full/train-00236-of-01024'
p243
aS'/data2/chengxuz/Dataset/TFRecord_Imagenet_standard/image_label_full/train-00237-of-01024'
p244
aS'/data2/chengxuz/Dataset/TFRecord_Imagenet_standard/image_label_full/train-00238-of-01024'
p245
aS'/data2/chengxuz/Dataset/TFRecord_Imagenet_standard/image_label_full/train-00239-of-01024'
p246
aS'/data2/chengxuz/Dataset/TFRecord_Imagenet_standard/image_label_full/train-00240-of-01024'
p247
aS'/data2/chengxuz/Dataset/TFRecord_Imagenet_standard/image_label_full/train-00241-of-01024'
p248
aS'/data2/chengxuz/Dataset/TFRecord_Imagenet_standard/image_label_full/train-00242-of-01024'
p249
aS'/data2/chengxuz/Dataset/TFRecord_Imagenet_standard/image_label_full/train-00243-of-01024'
p250
aS'/data2/chengxuz/Dataset/TFRecord_Imagenet_standard/image_label_full/train-00244-of-01024'
p251
aS'/data2/chengxuz/Dataset/TFRecord_Imagenet_standard/image_label_full/train-00245-of-01024'
p252
aS'/data2/chengxuz/Dataset/TFRecord_Imagenet_standard/image_label_full/train-00246-of-01024'
p253
aS'/data2/chengxuz/Dataset/TFRecord_Imagenet_standard/image_label_full/train-00247-of-01024'
p254
aS'/data2/chengxuz/Dataset/TFRecord_Imagenet_standard/image_label_full/train-00248-of-01024'
p255
aS'/data2/chengxuz/Dataset/TFRecord_Imagenet_standard/image_label_full/train-00249-of-01024'
p256
aS'/data2/chengxuz/Dataset/TFRecord_Imagenet_standard/image_label_full/train-00250-of-01024'
p257
aS'/data2/chengxuz/Dataset/TFRecord_Imagenet_standard/image_label_full/train-00251-of-01024'
p258
aS'/data2/chengxuz/Dataset/TFRecord_Imagenet_standard/image_label_full/train-00252-of-01024'
p259
aS'/data2/chengxuz/Dataset/TFRecord_Imagenet_standard/image_label_full/train-00253-of-01024'
p260
aS'/data2/chengxuz/Dataset/TFRecord_Imagenet_standard/image_label_full/train-00254-of-01024'
p261
aS'/data2/chengxuz/Dataset/TFRecord_Imagenet_standard/image_label_full/train-00255-of-01024'
p262
aS'/data2/chengxuz/Dataset/TFRecord_Imagenet_standard/image_label_full/train-00256-of-01024'
p263
aS'/data2/chengxuz/Dataset/TFRecord_Imagenet_standard/image_label_full/train-00257-of-01024'
p264
aS'/data2/chengxuz/Dataset/TFRecord_Imagenet_standard/image_label_full/train-00258-of-01024'
p265
aS'/data2/chengxuz/Dataset/TFRecord_Imagenet_standard/image_label_full/train-00259-of-01024'
p266
aS'/data2/chengxuz/Dataset/TFRecord_Imagenet_standard/image_label_full/train-00260-of-01024'
p267
aS'/data2/chengxuz/Dataset/TFRecord_Imagenet_standard/image_label_full/train-00261-of-01024'
p268
aS'/data2/chengxuz/Dataset/TFRecord_Imagenet_standard/image_label_full/train-00262-of-01024'
p269
aS'/data2/chengxuz/Dataset/TFRecord_Imagenet_standard/image_label_full/train-00263-of-01024'
p270
aS'/data2/chengxuz/Dataset/TFRecord_Imagenet_standard/image_label_full/train-00264-of-01024'
p271
aS'/data2/chengxuz/Dataset/TFRecord_Imagenet_standard/image_label_full/train-00265-of-01024'
p272
aS'/data2/chengxuz/Dataset/TFRecord_Imagenet_standard/image_label_full/train-00266-of-01024'
p273
aS'/data2/chengxuz/Dataset/TFRecord_Imagenet_standard/image_label_full/train-00267-of-01024'
p274
aS'/data2/chengxuz/Dataset/TFRecord_Imagenet_standard/image_label_full/train-00268-of-01024'
p275
aS'/data2/chengxuz/Dataset/TFRecord_Imagenet_standard/image_label_full/train-00269-of-01024'
p276
aS'/data2/chengxuz/Dataset/TFRecord_Imagenet_standard/image_label_full/train-00270-of-01024'
p277
aS'/data2/chengxuz/Dataset/TFRecord_Imagenet_standard/image_label_full/train-00271-of-01024'
p278
aS'/data2/chengxuz/Dataset/TFRecord_Imagenet_standard/image_label_full/train-00272-of-01024'
p279
aS'/data2/chengxuz/Dataset/TFRecord_Imagenet_standard/image_label_full/train-00273-of-01024'
p280
aS'/data2/chengxuz/Dataset/TFRecord_Imagenet_standard/image_label_full/train-00274-of-01024'
p281
aS'/data2/chengxuz/Dataset/TFRecord_Imagenet_standard/image_label_full/train-00275-of-01024'
p282
aS'/data2/chengxuz/Dataset/TFRecord_Imagenet_standard/image_label_full/train-00276-of-01024'
p283
aS'/data2/chengxuz/Dataset/TFRecord_Imagenet_standard/image_label_full/train-00277-of-01024'
p284
aS'/data2/chengxuz/Dataset/TFRecord_Imagenet_standard/image_label_full/train-00278-of-01024'
p285
aS'/data2/chengxuz/Dataset/TFRecord_Imagenet_standard/image_label_full/train-00279-of-01024'
p286
aS'/data2/chengxuz/Dataset/TFRecord_Imagenet_standard/image_label_full/train-00280-of-01024'
p287
aS'/data2/chengxuz/Dataset/TFRecord_Imagenet_standard/image_label_full/train-00281-of-01024'
p288
aS'/data2/chengxuz/Dataset/TFRecord_Imagenet_standard/image_label_full/train-00282-of-01024'
p289
aS'/data2/chengxuz/Dataset/TFRecord_Imagenet_standard/image_label_full/train-00283-of-01024'
p290
aS'/data2/chengxuz/Dataset/TFRecord_Imagenet_standard/image_label_full/train-00284-of-01024'
p291
aS'/data2/chengxuz/Dataset/TFRecord_Imagenet_standard/image_label_full/train-00285-of-01024'
p292
aS'/data2/chengxuz/Dataset/TFRecord_Imagenet_standard/image_label_full/train-00286-of-01024'
p293
aS'/data2/chengxuz/Dataset/TFRecord_Imagenet_standard/image_label_full/train-00287-of-01024'
p294
aS'/data2/chengxuz/Dataset/TFRecord_Imagenet_standard/image_label_full/train-00288-of-01024'
p295
aS'/data2/chengxuz/Dataset/TFRecord_Imagenet_standard/image_label_full/train-00289-of-01024'
p296
aS'/data2/chengxuz/Dataset/TFRecord_Imagenet_standard/image_label_full/train-00290-of-01024'
p297
aS'/data2/chengxuz/Dataset/TFRecord_Imagenet_standard/image_label_full/train-00291-of-01024'
p298
aS'/data2/chengxuz/Dataset/TFRecord_Imagenet_standard/image_label_full/train-00292-of-01024'
p299
aS'/data2/chengxuz/Dataset/TFRecord_Imagenet_standard/image_label_full/train-00293-of-01024'
p300
aS'/data2/chengxuz/Dataset/TFRecord_Imagenet_standard/image_label_full/train-00294-of-01024'
p301
aS'/data2/chengxuz/Dataset/TFRecord_Imagenet_standard/image_label_full/train-00295-of-01024'
p302
aS'/data2/chengxuz/Dataset/TFRecord_Imagenet_standard/image_label_full/train-00296-of-01024'
p303
aS'/data2/chengxuz/Dataset/TFRecord_Imagenet_standard/image_label_full/train-00297-of-01024'
p304
aS'/data2/chengxuz/Dataset/TFRecord_Imagenet_standard/image_label_full/train-00298-of-01024'
p305
aS'/data2/chengxuz/Dataset/TFRecord_Imagenet_standard/image_label_full/train-00299-of-01024'
p306
aS'/data2/chengxuz/Dataset/TFRecord_Imagenet_standard/image_label_full/train-00300-of-01024'
p307
aS'/data2/chengxuz/Dataset/TFRecord_Imagenet_standard/image_label_full/train-00301-of-01024'
p308
aS'/data2/chengxuz/Dataset/TFRecord_Imagenet_standard/image_label_full/train-00302-of-01024'
p309
aS'/data2/chengxuz/Dataset/TFRecord_Imagenet_standard/image_label_full/train-00303-of-01024'
p310
aS'/data2/chengxuz/Dataset/TFRecord_Imagenet_standard/image_label_full/train-00304-of-01024'
p311
aS'/data2/chengxuz/Dataset/TFRecord_Imagenet_standard/image_label_full/train-00305-of-01024'
p312
atp313
a(I382848
(lp314
S'/data2/chengxuz/Dataset/TFRecord_Imagenet_standard/image_label_full/train-00306-of-01024'
p315
aS'/data2/chengxuz/Dataset/TFRecord_Imagenet_standard/image_label_full/train-00307-of-01024'
p316
aS'/data2/chengxuz/Dataset/TFRecord_Imagenet_standard/image_label_full/train-00308-of-01024'
p317
aS'/data2/chengxuz/Dataset/TFRecord_Imagenet_standard/image_label_full/train-00309-of-01024'
p318
aS'/data2/chengxuz/Dataset/TFRecord_Imagenet_standard/image_label_full/train-00310-of-01024'
p319
aS'/data2/chengxuz/Dataset/TFRecord_Imagenet_standard/image_label_full/train-00311-of-01024'
p320
aS'/data2/chengxuz/Dataset/TFRecord_Imagenet_standard/image_label_full/train-00312-of-01024'
p321
aS'/data2/chengxuz/Dataset/TFRecord_Imagenet_standard/image_label_full/train-00313-of-01024'
p322
aS'/data2/chengxuz/Dataset/TFRecord_Imagenet_standard/image_label_full/train-00314-of-01024'
p323
aS'/data2/chengxuz/Dataset/TFRecord_Imagenet_standard/image_label_full/train-00315-of-01024'
p324
aS'/data2/chengxuz/Dataset/TFRecord_Imagenet_standard/image_label_full/train-00316-of-01024'
p325
aS'/data2/chengxuz/Dataset/TFRecord_Imagenet_standard/image_label_full/train-00317-of-01024'
p326
aS'/data2/chengxuz/Dataset/TFRecord_Imagenet_standard/image_label_full/train-00318-of-01024'
p327
aS'/data2/chengxuz/Dataset/TFRecord_Imagenet_standard/image_label_full/train-00319-of-01024'
p328
aS'/data2/chengxuz/Dataset/TFRecord_Imagenet_standard/image_label_full/train-00320-of-01024'
p329
aS'/data2/chengxuz/Dataset/TFRecord_Imagenet_standard/image_label_full/train-00321-of-01024'
p330
aS'/data2/chengxuz/Dataset/TFRecord_Imagenet_standard/image_label_full/train-00322-of-01024'
p331
aS'/data2/chengxuz/Dataset/TFRecord_Imagenet_standard/image_label_full/train-00323-of-01024'
p332
aS'/data2/chengxuz/Dataset/TFRecord_Imagenet_standard/image_label_full/train-00324-of-01024'
p333
aS'/data2/chengxuz/Dataset/TFRecord_Imagenet_standard/image_label_full/train-00325-of-01024'
p334
aS'/data2/chengxuz/Dataset/TFRecord_Imagenet_standard/image_label_full/train-00326-of-01024'
p335
aS'/data2/chengxuz/Dataset/TFRecord_Imagenet_standard/image_label_full/train-00327-of-01024'
p336
aS'/data2/chengxuz/Dataset/TFRecord_Imagenet_standard/image_label_full/train-00328-of-01024'
p337
aS'/data2/chengxuz/Dataset/TFRecord_Imagenet_standard/image_label_full/train-00329-of-01024'
p338
aS'/data2/chengxuz/Dataset/TFRecord_Imagenet_standard/image_label_full/train-00330-of-01024'
p339
aS'/data2/chengxuz/Dataset/TFRecord_Imagenet_standard/image_label_full/train-00331-of-01024'
p340
aS'/data2/chengxuz/Dataset/TFRecord_Imagenet_standard/image_label_full/train-00332-of-01024'
p341
aS'/data2/chengxuz/Dataset/TFRecord_Imagenet_standard/image_label_full/train-00333-of-01024'
p342
aS'/data2/chengxuz/Dataset/TFRecord_Imagenet_standard/image_label_full/train-00334-of-01024'
p343
aS'/data2/chengxuz/Dataset/TFRecord_Imagenet_standard/image_label_full/train-00335-of-01024'
p344
aS'/data2/chengxuz/Dataset/TFRecord_Imagenet_standard/image_label_full/train-00336-of-01024'
p345
aS'/data2/chengxuz/Dataset/TFRecord_Imagenet_standard/image_label_full/train-00337-of-01024'
p346
aS'/data2/chengxuz/Dataset/TFRecord_Imagenet_standard/image_label_full/train-00338-of-01024'
p347
aS'/data2/chengxuz/Dataset/TFRecord_Imagenet_standard/image_label_full/train-00339-of-01024'
p348
aS'/data2/chengxuz/Dataset/TFRecord_Imagenet_standard/image_label_full/train-00340-of-01024'
p349
aS'/data2/chengxuz/Dataset/TFRecord_Imagenet_standard/image_label_full/train-00341-of-01024'
p350
aS'/data2/chengxuz/Dataset/TFRecord_Imagenet_standard/image_label_full/train-00342-of-01024'
p351
aS'/data2/chengxuz/Dataset/TFRecord_Imagenet_standard/image_label_full/train-00343-of-01024'
p352
aS'/data2/chengxuz/Dataset/TFRecord_Imagenet_standard/image_label_full/train-00344-of-01024'
p353
aS'/data2/chengxuz/Dataset/TFRecord_Imagenet_standard/image_label_full/train-00345-of-01024'
p354
aS'/data2/chengxuz/Dataset/TFRecord_Imagenet_standard/image_label_full/train-00346-of-01024'
p355
aS'/data2/chengxuz/Dataset/TFRecord_Imagenet_standard/image_label_full/train-00347-of-01024'
p356
aS'/data2/chengxuz/Dataset/TFRecord_Imagenet_standard/image_label_full/train-00348-of-01024'
p357
aS'/data2/chengxuz/Dataset/TFRecord_Imagenet_standard/image_label_full/train-00349-of-01024'
p358
aS'/data2/chengxuz/Dataset/TFRecord_Imagenet_standard/image_label_full/train-00350-of-01024'
p359
aS'/data2/chengxuz/Dataset/TFRecord_Imagenet_standard/image_label_full/train-00351-of-01024'
p360
aS'/data2/chengxuz/Dataset/TFRecord_Imagenet_standard/image_label_full/train-00352-of-01024'
p361
aS'/data2/chengxuz/Dataset/TFRecord_Imagenet_standard/image_label_full/train-00353-of-01024'
p362
aS'/data2/chengxuz/Dataset/TFRecord_Imagenet_standard/image_label_full/train-00354-of-01024'
p363
aS'/data2/chengxuz/Dataset/TFRecord_Imagenet_standard/image_label_full/train-00355-of-01024'
p364
aS'/data2/chengxuz/Dataset/TFRecord_Imagenet_standard/image_label_full/train-00356-of-01024'
p365
aS'/data2/chengxuz/Dataset/TFRecord_Imagenet_standard/image_label_full/train-00357-of-01024'
p366
aS'/data2/chengxuz/Dataset/TFRecord_Imagenet_standard/image_label_full/train-00358-of-01024'
p367
aS'/data2/chengxuz/Dataset/TFRecord_Imagenet_standard/image_label_full/train-00359-of-01024'
p368
aS'/data2/chengxuz/Dataset/TFRecord_Imagenet_standard/image_label_full/train-00360-of-01024'
p369
aS'/data2/chengxuz/Dataset/TFRecord_Imagenet_standard/image_label_full/train-00361-of-01024'
p370
aS'/data2/chengxuz/Dataset/TFRecord_Imagenet_standard/image_label_full/train-00362-of-01024'
p371
aS'/data2/chengxuz/Dataset/TFRecord_Imagenet_standard/image_label_full/train-00363-of-01024'
p372
aS'/data2/chengxuz/Dataset/TFRecord_Imagenet_standard/image_label_full/train-00364-of-01024'
p373
aS'/data2/chengxuz/Dataset/TFRecord_Imagenet_standard/image_label_full/train-00365-of-01024'
p374
aS'/data2/chengxuz/Dataset/TFRecord_Imagenet_standard/image_label_full/train-00366-of-01024'
p375
aS'/data2/chengxuz/Dataset/TFRecord_Imagenet_standard/image_label_full/train-00367-of-01024'
p376
aS'/data2/chengxuz/Dataset/TFRecord_Imagenet_standard/image_label_full/train-00368-of-01024'
p377
aS'/data2/chengxuz/Dataset/TFRecord_Imagenet_standard/image_label_full/train-00369-of-01024'
p378
aS'/data2/chengxuz/Dataset/TFRecord_Imagenet_standard/image_label_full/train-00370-of-01024'
p379
aS'/data2/chengxuz/Dataset/TFRecord_Imagenet_standard/image_label_full/train-00371-of-01024'
p380
aS'/data2/chengxuz/Dataset/TFRecord_Imagenet_standard/image_label_full/train-00372-of-01024'
p381
aS'/data2/chengxuz/Dataset/TFRecord_Imagenet_standard/image_label_full/train-00373-of-01024'
p382
aS'/data2/chengxuz/Dataset/TFRecord_Imagenet_standard/image_label_full/train-00374-of-01024'
p383
aS'/data2/chengxuz/Dataset/TFRecord_Imagenet_standard/image_label_full/train-00375-of-01024'
p384
aS'/data2/chengxuz/Dataset/TFRecord_Imagenet_standard/image_label_full/train-00376-of-01024'
p385
aS'/data2/chengxuz/Dataset/TFRecord_Imagenet_standard/image_label_full/train-00377-of-01024'
p386
aS'/data2/chengxuz/Dataset/TFRecord_Imagenet_standard/image_label_full/train-00378-of-01024'
p387
aS'/data2/chengxuz/Dataset/TFRecord_Imagenet_standard/image_label_full/train-00379-of-01024'
p388
aS'/data2/chengxuz/Dataset/TFRecord_Imagenet_standard/image_label_full/train-00380-of-01024'
p389
aS'/data2/chengxuz/Dataset/TFRecord_Imagenet_standard/image_label_full/train-00381-of-01024'
p390
aS'/data2/chengxuz/Dataset/TFRecord_Imagenet_standard/image_label_full/train-00382-of-01024'
p391
aS'/data2/chengxuz/Dataset/TFRecord_Imagenet_standard/image_label_full/train-00383-of-01024'
p392
aS'/data2/chengxuz/Dataset/TFRecord_Imagenet_standard/image_label_full/train-00384-of-01024'
p393
aS'/data2/chengxuz/Dataset/TFRecord_Imagenet_standard/image_label_full/train-00385-of-01024'
p394
aS'/data2/chengxuz/Dataset/TFRecord_Imagenet_standard/image_label_full/train-00386-of-01024'
p395
aS'/data2/chengxuz/Dataset/TFRecord_Imagenet_standard/image_label_full/train-00387-of-01024'
p396
aS'/data2/chengxuz/Dataset/TFRecord_Imagenet_standard/image_label_full/train-00388-of-01024'
p397
aS'/data2/chengxuz/Dataset/TFRecord_Imagenet_standard/image_label_full/train-00389-of-01024'
p398
aS'/data2/chengxuz/Dataset/TFRecord_Imagenet_standard/image_label_full/train-00390-of-01024'
p399
aS'/data2/chengxuz/Dataset/TFRecord_Imagenet_standard/image_label_full/train-00391-of-01024'
p400
aS'/data2/chengxuz/Dataset/TFRecord_Imagenet_standard/image_label_full/train-00392-of-01024'
p401
aS'/data2/chengxuz/Dataset/TFRecord_Imagenet_standard/image_label_full/train-00393-of-01024'
p402
aS'/data2/chengxuz/Dataset/TFRecord_Imagenet_standard/image_label_full/train-00394-of-01024'
p403
aS'/data2/chengxuz/Dataset/TFRecord_Imagenet_standard/image_label_full/train-00395-of-01024'
p404
aS'/data2/chengxuz/Dataset/TFRecord_Imagenet_standard/image_label_full/train-00396-of-01024'
p405
aS'/data2/chengxuz/Dataset/TFRecord_Imagenet_standard/image_label_full/train-00397-of-01024'
p406
aS'/data2/chengxuz/Dataset/TFRecord_Imagenet_standard/image_label_full/train-00398-of-01024'
p407
aS'/data2/chengxuz/Dataset/TFRecord_Imagenet_standard/image_label_full/train-00399-of-01024'
p408
aS'/data2/chengxuz/Dataset/TFRecord_Imagenet_standard/image_label_full/train-00400-of-01024'
p409
aS'/data2/chengxuz/Dataset/TFRecord_Imagenet_standard/image_label_full/train-00401-of-01024'
p410
aS'/data2/chengxuz/Dataset/TFRecord_Imagenet_standard/image_label_full/train-00402-of-01024'
p411
aS'/data2/chengxuz/Dataset/TFRecord_Imagenet_standard/image_label_full/train-00403-of-01024'
p412
aS'/data2/chengxuz/Dataset/TFRecord_Imagenet_standard/image_label_full/train-00404-of-01024'
p413
aS'/data2/chengxuz/Dataset/TFRecord_Imagenet_standard/image_label_full/train-00405-of-01024'
p414
aS'/data2/chengxuz/Dataset/TFRecord_Imagenet_standard/image_label_full/train-00406-of-01024'
p415
aS'/data2/chengxuz/Dataset/TFRecord_Imagenet_standard/image_label_full/train-00407-of-01024'
p416
atp417
a(I510464
(lp418
S'/data2/chengxuz/Dataset/TFRecord_Imagenet_standard/image_label_full/train-00408-of-01024'
p419
aS'/data2/chengxuz/Dataset/TFRecord_Imagenet_standard/image_label_full/train-00409-of-01024'
p420
aS'/data2/chengxuz/Dataset/TFRecord_Imagenet_standard/image_label_full/train-00410-of-01024'
p421
aS'/data2/chengxuz/Dataset/TFRecord_Imagenet_standard/image_label_full/train-00411-of-01024'
p422
aS'/data2/chengxuz/Dataset/TFRecord_Imagenet_standard/image_label_full/train-00412-of-01024'
p423
aS'/data2/chengxuz/Dataset/TFRecord_Imagenet_standard/image_label_full/train-00413-of-01024'
p424
aS'/data2/chengxuz/Dataset/TFRecord_Imagenet_standard/image_label_full/train-00414-of-01024'
p425
aS'/data2/chengxuz/Dataset/TFRecord_Imagenet_standard/image_label_full/train-00415-of-01024'
p426
aS'/data2/chengxuz/Dataset/TFRecord_Imagenet_standard/image_label_full/train-00416-of-01024'
p427
aS'/data2/chengxuz/Dataset/TFRecord_Imagenet_standard/image_label_full/train-00417-of-01024'
p428
aS'/data2/chengxuz/Dataset/TFRecord_Imagenet_standard/image_label_full/train-00418-of-01024'
p429
aS'/data2/chengxuz/Dataset/TFRecord_Imagenet_standard/image_label_full/train-00419-of-01024'
p430
aS'/data2/chengxuz/Dataset/TFRecord_Imagenet_standard/image_label_full/train-00420-of-01024'
p431
aS'/data2/chengxuz/Dataset/TFRecord_Imagenet_standard/image_label_full/train-00421-of-01024'
p432
aS'/data2/chengxuz/Dataset/TFRecord_Imagenet_standard/image_label_full/train-00422-of-01024'
p433
aS'/data2/chengxuz/Dataset/TFRecord_Imagenet_standard/image_label_full/train-00423-of-01024'
p434
aS'/data2/chengxuz/Dataset/TFRecord_Imagenet_standard/image_label_full/train-00424-of-01024'
p435
aS'/data2/chengxuz/Dataset/TFRecord_Imagenet_standard/image_label_full/train-00425-of-01024'
p436
aS'/data2/chengxuz/Dataset/TFRecord_Imagenet_standard/image_label_full/train-00426-of-01024'
p437
aS'/data2/chengxuz/Dataset/TFRecord_Imagenet_standard/image_label_full/train-00427-of-01024'
p438
aS'/data2/chengxuz/Dataset/TFRecord_Imagenet_standard/image_label_full/train-00428-of-01024'
p439
aS'/data2/chengxuz/Dataset/TFRecord_Imagenet_standard/image_label_full/train-00429-of-01024'
p440
aS'/data2/chengxuz/Dataset/TFRecord_Imagenet_standard/image_label_full/train-00430-of-01024'
p441
aS'/data2/chengxuz/Dataset/TFRecord_Imagenet_standard/image_label_full/train-00431-of-01024'
p442
aS'/data2/chengxuz/Dataset/TFRecord_Imagenet_standard/image_label_full/train-00432-of-01024'
p443
aS'/data2/chengxuz/Dataset/TFRecord_Imagenet_standard/image_label_full/train-00433-of-01024'
p444
aS'/data2/chengxuz/Dataset/TFRecord_Imagenet_standard/image_label_full/train-00434-of-01024'
p445
aS'/data2/chengxuz/Dataset/TFRecord_Imagenet_standard/image_label_full/train-00435-of-01024'
p446
aS'/data2/chengxuz/Dataset/TFRecord_Imagenet_standard/image_label_full/train-00436-of-01024'
p447
aS'/data2/chengxuz/Dataset/TFRecord_Imagenet_standard/image_label_full/train-00437-of-01024'
p448
aS'/data2/chengxuz/Dataset/TFRecord_Imagenet_standard/image_label_full/train-00438-of-01024'
p449
aS'/data2/chengxuz/Dataset/TFRecord_Imagenet_standard/image_label_full/train-00439-of-01024'
p450
aS'/data2/chengxuz/Dataset/TFRecord_Imagenet_standard/image_label_full/train-00440-of-01024'
p451
aS'/data2/chengxuz/Dataset/TFRecord_Imagenet_standard/image_label_full/train-00441-of-01024'
p452
aS'/data2/chengxuz/Dataset/TFRecord_Imagenet_standard/image_label_full/train-00442-of-01024'
p453
aS'/data2/chengxuz/Dataset/TFRecord_Imagenet_standard/image_label_full/train-00443-of-01024'
p454
aS'/data2/chengxuz/Dataset/TFRecord_Imagenet_standard/image_label_full/train-00444-of-01024'
p455
aS'/data2/chengxuz/Dataset/TFRecord_Imagenet_standard/image_label_full/train-00445-of-01024'
p456
aS'/data2/chengxuz/Dataset/TFRecord_Imagenet_standard/image_label_full/train-00446-of-01024'
p457
aS'/data2/chengxuz/Dataset/TFRecord_Imagenet_standard/image_label_full/train-00447-of-01024'
p458
aS'/data2/chengxuz/Dataset/TFRecord_Imagenet_standard/image_label_full/train-00448-of-01024'
p459
aS'/data2/chengxuz/Dataset/TFRecord_Imagenet_standard/image_label_full/train-00449-of-01024'
p460
aS'/data2/chengxuz/Dataset/TFRecord_Imagenet_standard/image_label_full/train-00450-of-01024'
p461
aS'/data2/chengxuz/Dataset/TFRecord_Imagenet_standard/image_label_full/train-00451-of-01024'
p462
aS'/data2/chengxuz/Dataset/TFRecord_Imagenet_standard/image_label_full/train-00452-of-01024'
p463
aS'/data2/chengxuz/Dataset/TFRecord_Imagenet_standard/image_label_full/train-00453-of-01024'
p464
aS'/data2/chengxuz/Dataset/TFRecord_Imagenet_standard/image_label_full/train-00454-of-01024'
p465
aS'/data2/chengxuz/Dataset/TFRecord_Imagenet_standard/image_label_full/train-00455-of-01024'
p466
aS'/data2/chengxuz/Dataset/TFRecord_Imagenet_standard/image_label_full/train-00456-of-01024'
p467
aS'/data2/chengxuz/Dataset/TFRecord_Imagenet_standard/image_label_full/train-00457-of-01024'
p468
aS'/data2/chengxuz/Dataset/TFRecord_Imagenet_standard/image_label_full/train-00458-of-01024'
p469
aS'/data2/chengxuz/Dataset/TFRecord_Imagenet_standard/image_label_full/train-00459-of-01024'
p470
aS'/data2/chengxuz/Dataset/TFRecord_Imagenet_standard/image_label_full/train-00460-of-01024'
p471
aS'/data2/chengxuz/Dataset/TFRecord_Imagenet_standard/image_label_full/train-00461-of-01024'
p472
aS'/data2/chengxuz/Dataset/TFRecord_Imagenet_standard/image_label_full/train-00462-of-01024'
p473
aS'/data2/chengxuz/Dataset/TFRecord_Imagenet_standard/image_label_full/train-00463-of-01024'
p474
aS'/data2/chengxuz/Dataset/TFRecord_Imagenet_standard/image_label_full/train-00464-of-01024'
p475
aS'/data2/chengxuz/Dataset/TFRecord_Imagenet_standard/image_label_full/train-00465-of-01024'
p476
aS'/data2/chengxuz/Dataset/TFRecord_Imagenet_standard/image_label_full/train-00466-of-01024'
p477
aS'/data2/chengxuz/Dataset/TFRecord_Imagenet_standard/image_label_full/train-00467-of-01024'
p478
aS'/data2/chengxuz/Dataset/TFRecord_Imagenet_standard/image_label_full/train-00468-of-01024'
p479
aS'/data2/chengxuz/Dataset/TFRecord_Imagenet_standard/image_label_full/train-00469-of-01024'
p480
aS'/data2/chengxuz/Dataset/TFRecord_Imagenet_standard/image_label_full/train-00470-of-01024'
p481
aS'/data2/chengxuz/Dataset/TFRecord_Imagenet_standard/image_label_full/train-00471-of-01024'
p482
aS'/data2/chengxuz/Dataset/TFRecord_Imagenet_standard/image_label_full/train-00472-of-01024'
p483
aS'/data2/chengxuz/Dataset/TFRecord_Imagenet_standard/image_label_full/train-00473-of-01024'
p484
aS'/data2/chengxuz/Dataset/TFRecord_Imagenet_standard/image_label_full/train-00474-of-01024'
p485
aS'/data2/chengxuz/Dataset/TFRecord_Imagenet_standard/image_label_full/train-00475-of-01024'
p486
aS'/data2/chengxuz/Dataset/TFRecord_Imagenet_standard/image_label_full/train-00476-of-01024'
p487
aS'/data2/chengxuz/Dataset/TFRecord_Imagenet_standard/image_label_full/train-00477-of-01024'
p488
aS'/data2/chengxuz/Dataset/TFRecord_Imagenet_standard/image_label_full/train-00478-of-01024'
p489
aS'/data2/chengxuz/Dataset/TFRecord_Imagenet_standard/image_label_full/train-00479-of-01024'
p490
aS'/data2/chengxuz/Dataset/TFRecord_Imagenet_standard/image_label_full/train-00480-of-01024'
p491
aS'/data2/chengxuz/Dataset/TFRecord_Imagenet_standard/image_label_full/train-00481-of-01024'
p492
aS'/data2/chengxuz/Dataset/TFRecord_Imagenet_standard/image_label_full/train-00482-of-01024'
p493
aS'/data2/chengxuz/Dataset/TFRecord_Imagenet_standard/image_label_full/train-00483-of-01024'
p494
aS'/data2/chengxuz/Dataset/TFRecord_Imagenet_standard/image_label_full/train-00484-of-01024'
p495
aS'/data2/chengxuz/Dataset/TFRecord_Imagenet_standard/image_label_full/train-00485-of-01024'
p496
aS'/data2/chengxuz/Dataset/TFRecord_Imagenet_standard/image_label_full/train-00486-of-01024'
p497
aS'/data2/chengxuz/Dataset/TFRecord_Imagenet_standard/image_label_full/train-00487-of-01024'
p498
aS'/data2/chengxuz/Dataset/TFRecord_Imagenet_standard/image_label_full/train-00488-of-01024'
p499
aS'/data2/chengxuz/Dataset/TFRecord_Imagenet_standard/image_label_full/train-00489-of-01024'
p500
aS'/data2/chengxuz/Dataset/TFRecord_Imagenet_standard/image_label_full/train-00490-of-01024'
p501
aS'/data2/chengxuz/Dataset/TFRecord_Imagenet_standard/image_label_full/train-00491-of-01024'
p502
aS'/data2/chengxuz/Dataset/TFRecord_Imagenet_standard/image_label_full/train-00492-of-01024'
p503
aS'/data2/chengxuz/Dataset/TFRecord_Imagenet_standard/image_label_full/train-00493-of-01024'
p504
aS'/data2/chengxuz/Dataset/TFRecord_Imagenet_standard/image_label_full/train-00494-of-01024'
p505
aS'/data2/chengxuz/Dataset/TFRecord_Imagenet_standard/image_label_full/train-00495-of-01024'
p506
aS'/data2/chengxuz/Dataset/TFRecord_Imagenet_standard/image_label_full/train-00496-of-01024'
p507
aS'/data2/chengxuz/Dataset/TFRecord_Imagenet_standard/image_label_full/train-00497-of-01024'
p508
aS'/data2/chengxuz/Dataset/TFRecord_Imagenet_standard/image_label_full/train-00498-of-01024'
p509
aS'/data2/chengxuz/Dataset/TFRecord_Imagenet_standard/image_label_full/train-00499-of-01024'
p510
aS'/data2/chengxuz/Dataset/TFRecord_Imagenet_standard/image_label_full/train-00500-of-01024'
p511
aS'/data2/chengxuz/Dataset/TFRecord_Imagenet_standard/image_label_full/train-00501-of-01024'
p512
aS'/data2/chengxuz/Dataset/TFRecord_Imagenet_standard/image_label_full/train-00502-of-01024'
p513
aS'/data2/chengxuz/Dataset/TFRecord_Imagenet_standard/image_label_full/train-00503-of-01024'
p514
aS'/data2/chengxuz/Dataset/TFRecord_Imagenet_standard/image_label_full/train-00504-of-01024'
p515
aS'/data2/chengxuz/Dataset/TFRecord_Imagenet_standard/image_label_full/train-00505-of-01024'
p516
aS'/data2/chengxuz/Dataset/TFRecord_Imagenet_standard/image_label_full/train-00506-of-01024'
p517
aS'/data2/chengxuz/Dataset/TFRecord_Imagenet_standard/image_label_full/train-00507-of-01024'
p518
aS'/data2/chengxuz/Dataset/TFRecord_Imagenet_standard/image_label_full/train-00508-of-01024'
p519
aS'/data2/chengxuz/Dataset/TFRecord_Imagenet_standard/image_label_full/train-00509-of-01024'
p520
atp521
a(I638080
(lp522
S'/data2/chengxuz/Dataset/TFRecord_Imagenet_standard/image_label_full/train-00510-of-01024'
p523
aS'/data2/chengxuz/Dataset/TFRecord_Imagenet_standard/image_label_full/train-00511-of-01024'
p524
aS'/data2/chengxuz/Dataset/TFRecord_Imagenet_standard/image_label_full/train-00512-of-01024'
p525
aS'/data2/chengxuz/Dataset/TFRecord_Imagenet_standard/image_label_full/train-00513-of-01024'
p526
aS'/data2/chengxuz/Dataset/TFRecord_Imagenet_standard/image_label_full/train-00514-of-01024'
p527
aS'/data2/chengxuz/Dataset/TFRecord_Imagenet_standard/image_label_full/train-00515-of-01024'
p528
aS'/data2/chengxuz/Dataset/TFRecord_Imagenet_standard/image_label_full/train-00516-of-01024'
p529
aS'/data2/chengxuz/Dataset/TFRecord_Imagenet_standard/image_label_full/train-00517-of-01024'
p530
aS'/data2/chengxuz/Dataset/TFRecord_Imagenet_standard/image_label_full/train-00518-of-01024'
p531
aS'/data2/chengxuz/Dataset/TFRecord_Imagenet_standard/image_label_full/train-00519-of-01024'
p532
aS'/data2/chengxuz/Dataset/TFRecord_Imagenet_standard/image_label_full/train-00520-of-01024'
p533
aS'/data2/chengxuz/Dataset/TFRecord_Imagenet_standard/image_label_full/train-00521-of-01024'
p534
aS'/data2/chengxuz/Dataset/TFRecord_Imagenet_standard/image_label_full/train-00522-of-01024'
p535
aS'/data2/chengxuz/Dataset/TFRecord_Imagenet_standard/image_label_full/train-00523-of-01024'
p536
aS'/data2/chengxuz/Dataset/TFRecord_Imagenet_standard/image_label_full/train-00524-of-01024'
p537
aS'/data2/chengxuz/Dataset/TFRecord_Imagenet_standard/image_label_full/train-00525-of-01024'
p538
aS'/data2/chengxuz/Dataset/TFRecord_Imagenet_standard/image_label_full/train-00526-of-01024'
p539
aS'/data2/chengxuz/Dataset/TFRecord_Imagenet_standard/image_label_full/train-00527-of-01024'
p540
aS'/data2/chengxuz/Dataset/TFRecord_Imagenet_standard/image_label_full/train-00528-of-01024'
p541
aS'/data2/chengxuz/Dataset/TFRecord_Imagenet_standard/image_label_full/train-00529-of-01024'
p542
aS'/data2/chengxuz/Dataset/TFRecord_Imagenet_standard/image_label_full/train-00530-of-01024'
p543
aS'/data2/chengxuz/Dataset/TFRecord_Imagenet_standard/image_label_full/train-00531-of-01024'
p544
aS'/data2/chengxuz/Dataset/TFRecord_Imagenet_standard/image_label_full/train-00532-of-01024'
p545
aS'/data2/chengxuz/Dataset/TFRecord_Imagenet_standard/image_label_full/train-00533-of-01024'
p546
aS'/data2/chengxuz/Dataset/TFRecord_Imagenet_standard/image_label_full/train-00534-of-01024'
p547
aS'/data2/chengxuz/Dataset/TFRecord_Imagenet_standard/image_label_full/train-00535-of-01024'
p548
aS'/data2/chengxuz/Dataset/TFRecord_Imagenet_standard/image_label_full/train-00536-of-01024'
p549
aS'/data2/chengxuz/Dataset/TFRecord_Imagenet_standard/image_label_full/train-00537-of-01024'
p550
aS'/data2/chengxuz/Dataset/TFRecord_Imagenet_standard/image_label_full/train-00538-of-01024'
p551
aS'/data2/chengxuz/Dataset/TFRecord_Imagenet_standard/image_label_full/train-00539-of-01024'
p552
aS'/data2/chengxuz/Dataset/TFRecord_Imagenet_standard/image_label_full/train-00540-of-01024'
p553
aS'/data2/chengxuz/Dataset/TFRecord_Imagenet_standard/image_label_full/train-00541-of-01024'
p554
aS'/data2/chengxuz/Dataset/TFRecord_Imagenet_standard/image_label_full/train-00542-of-01024'
p555
aS'/data2/chengxuz/Dataset/TFRecord_Imagenet_standard/image_label_full/train-00543-of-01024'
p556
aS'/data2/chengxuz/Dataset/TFRecord_Imagenet_standard/image_label_full/train-00544-of-01024'
p557
aS'/data2/chengxuz/Dataset/TFRecord_Imagenet_standard/image_label_full/train-00545-of-01024'
p558
aS'/data2/chengxuz/Dataset/TFRecord_Imagenet_standard/image_label_full/train-00546-of-01024'
p559
aS'/data2/chengxuz/Dataset/TFRecord_Imagenet_standard/image_label_full/train-00547-of-01024'
p560
aS'/data2/chengxuz/Dataset/TFRecord_Imagenet_standard/image_label_full/train-00548-of-01024'
p561
aS'/data2/chengxuz/Dataset/TFRecord_Imagenet_standard/image_label_full/train-00549-of-01024'
p562
aS'/data2/chengxuz/Dataset/TFRecord_Imagenet_standard/image_label_full/train-00550-of-01024'
p563
aS'/data2/chengxuz/Dataset/TFRecord_Imagenet_standard/image_label_full/train-00551-of-01024'
p564
aS'/data2/chengxuz/Dataset/TFRecord_Imagenet_standard/image_label_full/train-00552-of-01024'
p565
aS'/data2/chengxuz/Dataset/TFRecord_Imagenet_standard/image_label_full/train-00553-of-01024'
p566
aS'/data2/chengxuz/Dataset/TFRecord_Imagenet_standard/image_label_full/train-00554-of-01024'
p567
aS'/data2/chengxuz/Dataset/TFRecord_Imagenet_standard/image_label_full/train-00555-of-01024'
p568
aS'/data2/chengxuz/Dataset/TFRecord_Imagenet_standard/image_label_full/train-00556-of-01024'
p569
aS'/data2/chengxuz/Dataset/TFRecord_Imagenet_standard/image_label_full/train-00557-of-01024'
p570
aS'/data2/chengxuz/Dataset/TFRecord_Imagenet_standard/image_label_full/train-00558-of-01024'
p571
aS'/data2/chengxuz/Dataset/TFRecord_Imagenet_standard/image_label_full/train-00559-of-01024'
p572
aS'/data2/chengxuz/Dataset/TFRecord_Imagenet_standard/image_label_full/train-00560-of-01024'
p573
aS'/data2/chengxuz/Dataset/TFRecord_Imagenet_standard/image_label_full/train-00561-of-01024'
p574
aS'/data2/chengxuz/Dataset/TFRecord_Imagenet_standard/image_label_full/train-00562-of-01024'
p575
aS'/data2/chengxuz/Dataset/TFRecord_Imagenet_standard/image_label_full/train-00563-of-01024'
p576
aS'/data2/chengxuz/Dataset/TFRecord_Imagenet_standard/image_label_full/train-00564-of-01024'
p577
aS'/data2/chengxuz/Dataset/TFRecord_Imagenet_standard/image_label_full/train-00565-of-01024'
p578
aS'/data2/chengxuz/Dataset/TFRecord_Imagenet_standard/image_label_full/train-00566-of-01024'
p579
aS'/data2/chengxuz/Dataset/TFRecord_Imagenet_standard/image_label_full/train-00567-of-01024'
p580
aS'/data2/chengxuz/Dataset/TFRecord_Imagenet_standard/image_label_full/train-00568-of-01024'
p581
aS'/data2/chengxuz/Dataset/TFRecord_Imagenet_standard/image_label_full/train-00569-of-01024'
p582
aS'/data2/chengxuz/Dataset/TFRecord_Imagenet_standard/image_label_full/train-00570-of-01024'
p583
aS'/data2/chengxuz/Dataset/TFRecord_Imagenet_standard/image_label_full/train-00571-of-01024'
p584
aS'/data2/chengxuz/Dataset/TFRecord_Imagenet_standard/image_label_full/train-00572-of-01024'
p585
aS'/data2/chengxuz/Dataset/TFRecord_Imagenet_standard/image_label_full/train-00573-of-01024'
p586
aS'/data2/chengxuz/Dataset/TFRecord_Imagenet_standard/image_label_full/train-00574-of-01024'
p587
aS'/data2/chengxuz/Dataset/TFRecord_Imagenet_standard/image_label_full/train-00575-of-01024'
p588
aS'/data2/chengxuz/Dataset/TFRecord_Imagenet_standard/image_label_full/train-00576-of-01024'
p589
aS'/data2/chengxuz/Dataset/TFRecord_Imagenet_standard/image_label_full/train-00577-of-01024'
p590
aS'/data2/chengxuz/Dataset/TFRecord_Imagenet_standard/image_label_full/train-00578-of-01024'
p591
aS'/data2/chengxuz/Dataset/TFRecord_Imagenet_standard/image_label_full/train-00579-of-01024'
p592
aS'/data2/chengxuz/Dataset/TFRecord_Imagenet_standard/image_label_full/train-00580-of-01024'
p593
aS'/data2/chengxuz/Dataset/TFRecord_Imagenet_standard/image_label_full/train-00581-of-01024'
p594
aS'/data2/chengxuz/Dataset/TFRecord_Imagenet_standard/image_label_full/train-00582-of-01024'
p595
aS'/data2/chengxuz/Dataset/TFRecord_Imagenet_standard/image_label_full/train-00583-of-01024'
p596
aS'/data2/chengxuz/Dataset/TFRecord_Imagenet_standard/image_label_full/train-00584-of-01024'
p597
aS'/data2/chengxuz/Dataset/TFRecord_Imagenet_standard/image_label_full/train-00585-of-01024'
p598
aS'/data2/chengxuz/Dataset/TFRecord_Imagenet_standard/image_label_full/train-00586-of-01024'
p599
aS'/data2/chengxuz/Dataset/TFRecord_Imagenet_standard/image_label_full/train-00587-of-01024'
p600
aS'/data2/chengxuz/Dataset/TFRecord_Imagenet_standard/image_label_full/train-00588-of-01024'
p601
aS'/data2/chengxuz/Dataset/TFRecord_Imagenet_standard/image_label_full/train-00589-of-01024'
p602
aS'/data2/chengxuz/Dataset/TFRecord_Imagenet_standard/image_label_full/train-00590-of-01024'
p603
aS'/data2/chengxuz/Dataset/TFRecord_Imagenet_standard/image_label_full/train-00591-of-01024'
p604
aS'/data2/chengxuz/Dataset/TFRecord_Imagenet_standard/image_label_full/train-00592-of-01024'
p605
aS'/data2/chengxuz/Dataset/TFRecord_Imagenet_standard/image_label_full/train-00593-of-01024'
p606
aS'/data2/chengxuz/Dataset/TFRecord_Imagenet_standard/image_label_full/train-00594-of-01024'
p607
aS'/data2/chengxuz/Dataset/TFRecord_Imagenet_standard/image_label_full/train-00595-of-01024'
p608
aS'/data2/chengxuz/Dataset/TFRecord_Imagenet_standard/image_label_full/train-00596-of-01024'
p609
aS'/data2/chengxuz/Dataset/TFRecord_Imagenet_standard/image_label_full/train-00597-of-01024'
p610
aS'/data2/chengxuz/Dataset/TFRecord_Imagenet_standard/image_label_full/train-00598-of-01024'
p611
aS'/data2/chengxuz/Dataset/TFRecord_Imagenet_standard/image_label_full/train-00599-of-01024'
p612
aS'/data2/chengxuz/Dataset/TFRecord_Imagenet_standard/image_label_full/train-00600-of-01024'
p613
aS'/data2/chengxuz/Dataset/TFRecord_Imagenet_standard/image_label_full/train-00601-of-01024'
p614
aS'/data2/chengxuz/Dataset/TFRecord_Imagenet_standard/image_label_full/train-00602-of-01024'
p615
aS'/data2/chengxuz/Dataset/TFRecord_Imagenet_standard/image_label_full/train-00603-of-01024'
p616
aS'/data2/chengxuz/Dataset/TFRecord_Imagenet_standard/image_label_full/train-00604-of-01024'
p617
aS'/data2/chengxuz/Dataset/TFRecord_Imagenet_standard/image_label_full/train-00605-of-01024'
p618
aS'/data2/chengxuz/Dataset/TFRecord_Imagenet_standard/image_label_full/train-00606-of-01024'
p619
aS'/data2/chengxuz/Dataset/TFRecord_Imagenet_standard/image_label_full/train-00607-of-01024'
p620
aS'/data2/chengxuz/Dataset/TFRecord_Imagenet_standard/image_label_full/train-00608-of-01024'
p621
aS'/data2/chengxuz/Dataset/TFRecord_Imagenet_standard/image_label_full/train-00609-of-01024'
p622
aS'/data2/chengxuz/Dataset/TFRecord_Imagenet_standard/image_label_full/train-00610-of-01024'
p623
aS'/data2/chengxuz/Dataset/TFRecord_Imagenet_standard/image_label_full/train-00611-of-01024'
p624
atp625
a(I765697
(lp626
S'/data2/chengxuz/Dataset/TFRecord_Imagenet_standard/image_label_full/train-00612-of-01024'
p627
aS'/data2/chengxuz/Dataset/TFRecord_Imagenet_standard/image_label_full/train-00613-of-01024'
p628
aS'/data2/chengxuz/Dataset/TFRecord_Imagenet_standard/image_label_full/train-00614-of-01024'
p629
aS'/data2/chengxuz/Dataset/TFRecord_Imagenet_standard/image_label_full/train-00615-of-01024'
p630
aS'/data2/chengxuz/Dataset/TFRecord_Imagenet_standard/image_label_full/train-00616-of-01024'
p631
aS'/data2/chengxuz/Dataset/TFRecord_Imagenet_standard/image_label_full/train-00617-of-01024'
p632
aS'/data2/chengxuz/Dataset/TFRecord_Imagenet_standard/image_label_full/train-00618-of-01024'
p633
aS'/data2/chengxuz/Dataset/TFRecord_Imagenet_standard/image_label_full/train-00619-of-01024'
p634
aS'/data2/chengxuz/Dataset/TFRecord_Imagenet_standard/image_label_full/train-00620-of-01024'
p635
aS'/data2/chengxuz/Dataset/TFRecord_Imagenet_standard/image_label_full/train-00621-of-01024'
p636
aS'/data2/chengxuz/Dataset/TFRecord_Imagenet_standard/image_label_full/train-00622-of-01024'
p637
aS'/data2/chengxuz/Dataset/TFRecord_Imagenet_standard/image_label_full/train-00623-of-01024'
p638
aS'/data2/chengxuz/Dataset/TFRecord_Imagenet_standard/image_label_full/train-00624-of-01024'
p639
aS'/data2/chengxuz/Dataset/TFRecord_Imagenet_standard/image_label_full/train-00625-of-01024'
p640
aS'/data2/chengxuz/Dataset/TFRecord_Imagenet_standard/image_label_full/train-00626-of-01024'
p641
aS'/data2/chengxuz/Dataset/TFRecord_Imagenet_standard/image_label_full/train-00627-of-01024'
p642
aS'/data2/chengxuz/Dataset/TFRecord_Imagenet_standard/image_label_full/train-00628-of-01024'
p643
aS'/data2/chengxuz/Dataset/TFRecord_Imagenet_standard/image_label_full/train-00629-of-01024'
p644
aS'/data2/chengxuz/Dataset/TFRecord_Imagenet_standard/image_label_full/train-00630-of-01024'
p645
aS'/data2/chengxuz/Dataset/TFRecord_Imagenet_standard/image_label_full/train-00631-of-01024'
p646
aS'/data2/chengxuz/Dataset/TFRecord_Imagenet_standard/image_label_full/train-00632-of-01024'
p647
aS'/data2/chengxuz/Dataset/TFRecord_Imagenet_standard/image_label_full/train-00633-of-01024'
p648
aS'/data2/chengxuz/Dataset/TFRecord_Imagenet_standard/image_label_full/train-00634-of-01024'
p649
aS'/data2/chengxuz/Dataset/TFRecord_Imagenet_standard/image_label_full/train-00635-of-01024'
p650
aS'/data2/chengxuz/Dataset/TFRecord_Imagenet_standard/image_label_full/train-00636-of-01024'
p651
aS'/data2/chengxuz/Dataset/TFRecord_Imagenet_standard/image_label_full/train-00637-of-01024'
p652
aS'/data2/chengxuz/Dataset/TFRecord_Imagenet_standard/image_label_full/train-00638-of-01024'
p653
aS'/data2/chengxuz/Dataset/TFRecord_Imagenet_standard/image_label_full/train-00639-of-01024'
p654
aS'/data2/chengxuz/Dataset/TFRecord_Imagenet_standard/image_label_full/train-00640-of-01024'
p655
aS'/data2/chengxuz/Dataset/TFRecord_Imagenet_standard/image_label_full/train-00641-of-01024'
p656
aS'/data2/chengxuz/Dataset/TFRecord_Imagenet_standard/image_label_full/train-00642-of-01024'
p657
aS'/data2/chengxuz/Dataset/TFRecord_Imagenet_standard/image_label_full/train-00643-of-01024'
p658
aS'/data2/chengxuz/Dataset/TFRecord_Imagenet_standard/image_label_full/train-00644-of-01024'
p659
aS'/data2/chengxuz/Dataset/TFRecord_Imagenet_standard/image_label_full/train-00645-of-01024'
p660
aS'/data2/chengxuz/Dataset/TFRecord_Imagenet_standard/image_label_full/train-00646-of-01024'
p661
aS'/data2/chengxuz/Dataset/TFRecord_Imagenet_standard/image_label_full/train-00647-of-01024'
p662
aS'/data2/chengxuz/Dataset/TFRecord_Imagenet_standard/image_label_full/train-00648-of-01024'
p663
aS'/data2/chengxuz/Dataset/TFRecord_Imagenet_standard/image_label_full/train-00649-of-01024'
p664
aS'/data2/chengxuz/Dataset/TFRecord_Imagenet_standard/image_label_full/train-00650-of-01024'
p665
aS'/data2/chengxuz/Dataset/TFRecord_Imagenet_standard/image_label_full/train-00651-of-01024'
p666
aS'/data2/chengxuz/Dataset/TFRecord_Imagenet_standard/image_label_full/train-00652-of-01024'
p667
aS'/data2/chengxuz/Dataset/TFRecord_Imagenet_standard/image_label_full/train-00653-of-01024'
p668
aS'/data2/chengxuz/Dataset/TFRecord_Imagenet_standard/image_label_full/train-00654-of-01024'
p669
aS'/data2/chengxuz/Dataset/TFRecord_Imagenet_standard/image_label_full/train-00655-of-01024'
p670
aS'/data2/chengxuz/Dataset/TFRecord_Imagenet_standard/image_label_full/train-00656-of-01024'
p671
aS'/data2/chengxuz/Dataset/TFRecord_Imagenet_standard/image_label_full/train-00657-of-01024'
p672
aS'/data2/chengxuz/Dataset/TFRecord_Imagenet_standard/image_label_full/train-00658-of-01024'
p673
aS'/data2/chengxuz/Dataset/TFRecord_Imagenet_standard/image_label_full/train-00659-of-01024'
p674
aS'/data2/chengxuz/Dataset/TFRecord_Imagenet_standard/image_label_full/train-00660-of-01024'
p675
aS'/data2/chengxuz/Dataset/TFRecord_Imagenet_standard/image_label_full/train-00661-of-01024'
p676
aS'/data2/chengxuz/Dataset/TFRecord_Imagenet_standard/image_label_full/train-00662-of-01024'
p677
aS'/data2/chengxuz/Dataset/TFRecord_Imagenet_standard/image_label_full/train-00663-of-01024'
p678
aS'/data2/chengxuz/Dataset/TFRecord_Imagenet_standard/image_label_full/train-00664-of-01024'
p679
aS'/data2/chengxuz/Dataset/TFRecord_Imagenet_standard/image_label_full/train-00665-of-01024'
p680
aS'/data2/chengxuz/Dataset/TFRecord_Imagenet_standard/image_label_full/train-00666-of-01024'
p681
aS'/data2/chengxuz/Dataset/TFRecord_Imagenet_standard/image_label_full/train-00667-of-01024'
p682
aS'/data2/chengxuz/Dataset/TFRecord_Imagenet_standard/image_label_full/train-00668-of-01024'
p683
aS'/data2/chengxuz/Dataset/TFRecord_Imagenet_standard/image_label_full/train-00669-of-01024'
p684
aS'/data2/chengxuz/Dataset/TFRecord_Imagenet_standard/image_label_full/train-00670-of-01024'
p685
aS'/data2/chengxuz/Dataset/TFRecord_Imagenet_standard/image_label_full/train-00671-of-01024'
p686
aS'/data2/chengxuz/Dataset/TFRecord_Imagenet_standard/image_label_full/train-00672-of-01024'
p687
aS'/data2/chengxuz/Dataset/TFRecord_Imagenet_standard/image_label_full/train-00673-of-01024'
p688
aS'/data2/chengxuz/Dataset/TFRecord_Imagenet_standard/image_label_full/train-00674-of-01024'
p689
aS'/data2/chengxuz/Dataset/TFRecord_Imagenet_standard/image_label_full/train-00675-of-01024'
p690
aS'/data2/chengxuz/Dataset/TFRecord_Imagenet_standard/image_label_full/train-00676-of-01024'
p691
aS'/data2/chengxuz/Dataset/TFRecord_Imagenet_standard/image_label_full/train-00677-of-01024'
p692
aS'/data2/chengxuz/Dataset/TFRecord_Imagenet_standard/image_label_full/train-00678-of-01024'
p693
aS'/data2/chengxuz/Dataset/TFRecord_Imagenet_standard/image_label_full/train-00679-of-01024'
p694
aS'/data2/chengxuz/Dataset/TFRecord_Imagenet_standard/image_label_full/train-00680-of-01024'
p695
aS'/data2/chengxuz/Dataset/TFRecord_Imagenet_standard/image_label_full/train-00681-of-01024'
p696
aS'/data2/chengxuz/Dataset/TFRecord_Imagenet_standard/image_label_full/train-00682-of-01024'
p697
aS'/data2/chengxuz/Dataset/TFRecord_Imagenet_standard/image_label_full/train-00683-of-01024'
p698
aS'/data2/chengxuz/Dataset/TFRecord_Imagenet_standard/image_label_full/train-00684-of-01024'
p699
aS'/data2/chengxuz/Dataset/TFRecord_Imagenet_standard/image_label_full/train-00685-of-01024'
p700
aS'/data2/chengxuz/Dataset/TFRecord_Imagenet_standard/image_label_full/train-00686-of-01024'
p701
aS'/data2/chengxuz/Dataset/TFRecord_Imagenet_standard/image_label_full/train-00687-of-01024'
p702
aS'/data2/chengxuz/Dataset/TFRecord_Imagenet_standard/image_label_full/train-00688-of-01024'
p703
aS'/data2/chengxuz/Dataset/TFRecord_Imagenet_standard/image_label_full/train-00689-of-01024'
p704
aS'/data2/chengxuz/Dataset/TFRecord_Imagenet_standard/image_label_full/train-00690-of-01024'
p705
aS'/data2/chengxuz/Dataset/TFRecord_Imagenet_standard/image_label_full/train-00691-of-01024'
p706
aS'/data2/chengxuz/Dataset/TFRecord_Imagenet_standard/image_label_full/train-00692-of-01024'
p707
aS'/data2/chengxuz/Dataset/TFRecord_Imagenet_standard/image_label_full/train-00693-of-01024'
p708
aS'/data2/chengxuz/Dataset/TFRecord_Imagenet_standard/image_label_full/train-00694-of-01024'
p709
aS'/data2/chengxuz/Dataset/TFRecord_Imagenet_standard/image_label_full/train-00695-of-01024'
p710
aS'/data2/chengxuz/Dataset/TFRecord_Imagenet_standard/image_label_full/train-00696-of-01024'
p711
aS'/data2/chengxuz/Dataset/TFRecord_Imagenet_standard/image_label_full/train-00697-of-01024'
p712
aS'/data2/chengxuz/Dataset/TFRecord_Imagenet_standard/image_label_full/train-00698-of-01024'
p713
aS'/data2/chengxuz/Dataset/TFRecord_Imagenet_standard/image_label_full/train-00699-of-01024'
p714
aS'/data2/chengxuz/Dataset/TFRecord_Imagenet_standard/image_label_full/train-00700-of-01024'
p715
aS'/data2/chengxuz/Dataset/TFRecord_Imagenet_standard/image_label_full/train-00701-of-01024'
p716
aS'/data2/chengxuz/Dataset/TFRecord_Imagenet_standard/image_label_full/train-00702-of-01024'
p717
aS'/data2/chengxuz/Dataset/TFRecord_Imagenet_standard/image_label_full/train-00703-of-01024'
p718
aS'/data2/chengxuz/Dataset/TFRecord_Imagenet_standard/image_label_full/train-00704-of-01024'
p719
aS'/data2/chengxuz/Dataset/TFRecord_Imagenet_standard/image_label_full/train-00705-of-01024'
p720
aS'/data2/chengxuz/Dataset/TFRecord_Imagenet_standard/image_label_full/train-00706-of-01024'
p721
aS'/data2/chengxuz/Dataset/TFRecord_Imagenet_standard/image_label_full/train-00707-of-01024'
p722
aS'/data2/chengxuz/Dataset/TFRecord_Imagenet_standard/image_label_full/train-00708-of-01024'
p723
aS'/data2/chengxuz/Dataset/TFRecord_Imagenet_standard/image_label_full/train-00709-of-01024'
p724
aS'/data2/chengxuz/Dataset/TFRecord_Imagenet_standard/image_label_full/train-00710-of-01024'
p725
aS'/data2/chengxuz/Dataset/TFRecord_Imagenet_standard/image_label_full/train-00711-of-01024'
p726
aS'/data2/chengxuz/Dataset/TFRecord_Imagenet_standard/image_label_full/train-00712-of-01024'
p727
aS'/data2/chengxuz/Dataset/TFRecord_Imagenet_standard/image_label_full/train-00713-of-01024'
p728
atp729
a(I893313
(lp730
S'/data2/chengxuz/Dataset/TFRecord_Imagenet_standard/image_label_full/train-00714-of-01024'
p731
aS'/data2/chengxuz/Dataset/TFRecord_Imagenet_standard/image_label_full/train-00715-of-01024'
p732
aS'/data2/chengxuz/Dataset/TFRecord_Imagenet_standard/image_label_full/train-00716-of-01024'
p733
aS'/data2/chengxuz/Dataset/TFRecord_Imagenet_standard/image_label_full/train-00717-of-01024'
p734
aS'/data2/chengxuz/Dataset/TFRecord_Imagenet_standard/image_label_full/train-00718-of-01024'
p735
aS'/data2/chengxuz/Dataset/TFRecord_Imagenet_standard/image_label_full/train-00719-of-01024'
p736
aS'/data2/chengxuz/Dataset/TFRecord_Imagenet_standard/image_label_full/train-00720-of-01024'
p737
aS'/data2/chengxuz/Dataset/TFRecord_Imagenet_standard/image_label_full/train-00721-of-01024'
p738
aS'/data2/chengxuz/Dataset/TFRecord_Imagenet_standard/image_label_full/train-00722-of-01024'
p739
aS'/data2/chengxuz/Dataset/TFRecord_Imagenet_standard/image_label_full/train-00723-of-01024'
p740
aS'/data2/chengxuz/Dataset/TFRecord_Imagenet_standard/image_label_full/train-00724-of-01024'
p741
aS'/data2/chengxuz/Dataset/TFRecord_Imagenet_standard/image_label_full/train-00725-of-01024'
p742
aS'/data2/chengxuz/Dataset/TFRecord_Imagenet_standard/image_label_full/train-00726-of-01024'
p743
aS'/data2/chengxuz/Dataset/TFRecord_Imagenet_standard/image_label_full/train-00727-of-01024'
p744
aS'/data2/chengxuz/Dataset/TFRecord_Imagenet_standard/image_label_full/train-00728-of-01024'
p745
aS'/data2/chengxuz/Dataset/TFRecord_Imagenet_standard/image_label_full/train-00729-of-01024'
p746
aS'/data2/chengxuz/Dataset/TFRecord_Imagenet_standard/image_label_full/train-00730-of-01024'
p747
aS'/data2/chengxuz/Dataset/TFRecord_Imagenet_standard/image_label_full/train-00731-of-01024'
p748
aS'/data2/chengxuz/Dataset/TFRecord_Imagenet_standard/image_label_full/train-00732-of-01024'
p749
aS'/data2/chengxuz/Dataset/TFRecord_Imagenet_standard/image_label_full/train-00733-of-01024'
p750
aS'/data2/chengxuz/Dataset/TFRecord_Imagenet_standard/image_label_full/train-00734-of-01024'
p751
aS'/data2/chengxuz/Dataset/TFRecord_Imagenet_standard/image_label_full/train-00735-of-01024'
p752
aS'/data2/chengxuz/Dataset/TFRecord_Imagenet_standard/image_label_full/train-00736-of-01024'
p753
aS'/data2/chengxuz/Dataset/TFRecord_Imagenet_standard/image_label_full/train-00737-of-01024'
p754
aS'/data2/chengxuz/Dataset/TFRecord_Imagenet_standard/image_label_full/train-00738-of-01024'
p755
aS'/data2/chengxuz/Dataset/TFRecord_Imagenet_standard/image_label_full/train-00739-of-01024'
p756
aS'/data2/chengxuz/Dataset/TFRecord_Imagenet_standard/image_label_full/train-00740-of-01024'
p757
aS'/data2/chengxuz/Dataset/TFRecord_Imagenet_standard/image_label_full/train-00741-of-01024'
p758
aS'/data2/chengxuz/Dataset/TFRecord_Imagenet_standard/image_label_full/train-00742-of-01024'
p759
aS'/data2/chengxuz/Dataset/TFRecord_Imagenet_standard/image_label_full/train-00743-of-01024'
p760
aS'/data2/chengxuz/Dataset/TFRecord_Imagenet_standard/image_label_full/train-00744-of-01024'
p761
aS'/data2/chengxuz/Dataset/TFRecord_Imagenet_standard/image_label_full/train-00745-of-01024'
p762
aS'/data2/chengxuz/Dataset/TFRecord_Imagenet_standard/image_label_full/train-00746-of-01024'
p763
aS'/data2/chengxuz/Dataset/TFRecord_Imagenet_standard/image_label_full/train-00747-of-01024'
p764
aS'/data2/chengxuz/Dataset/TFRecord_Imagenet_standard/image_label_full/train-00748-of-01024'
p765
aS'/data2/chengxuz/Dataset/TFRecord_Imagenet_standard/image_label_full/train-00749-of-01024'
p766
aS'/data2/chengxuz/Dataset/TFRecord_Imagenet_standard/image_label_full/train-00750-of-01024'
p767
aS'/data2/chengxuz/Dataset/TFRecord_Imagenet_standard/image_label_full/train-00751-of-01024'
p768
aS'/data2/chengxuz/Dataset/TFRecord_Imagenet_standard/image_label_full/train-00752-of-01024'
p769
aS'/data2/chengxuz/Dataset/TFRecord_Imagenet_standard/image_label_full/train-00753-of-01024'
p770
aS'/data2/chengxuz/Dataset/TFRecord_Imagenet_standard/image_label_full/train-00754-of-01024'
p771
aS'/data2/chengxuz/Dataset/TFRecord_Imagenet_standard/image_label_full/train-00755-of-01024'
p772
aS'/data2/chengxuz/Dataset/TFRecord_Imagenet_standard/image_label_full/train-00756-of-01024'
p773
aS'/data2/chengxuz/Dataset/TFRecord_Imagenet_standard/image_label_full/train-00757-of-01024'
p774
aS'/data2/chengxuz/Dataset/TFRecord_Imagenet_standard/image_label_full/train-00758-of-01024'
p775
aS'/data2/chengxuz/Dataset/TFRecord_Imagenet_standard/image_label_full/train-00759-of-01024'
p776
aS'/data2/chengxuz/Dataset/TFRecord_Imagenet_standard/image_label_full/train-00760-of-01024'
p777
aS'/data2/chengxuz/Dataset/TFRecord_Imagenet_standard/image_label_full/train-00761-of-01024'
p778
aS'/data2/chengxuz/Dataset/TFRecord_Imagenet_standard/image_label_full/train-00762-of-01024'
p779
aS'/data2/chengxuz/Dataset/TFRecord_Imagenet_standard/image_label_full/train-00763-of-01024'
p780
aS'/data2/chengxuz/Dataset/TFRecord_Imagenet_standard/image_label_full/train-00764-of-01024'
p781
aS'/data2/chengxuz/Dataset/TFRecord_Imagenet_standard/image_label_full/train-00765-of-01024'
p782
aS'/data2/chengxuz/Dataset/TFRecord_Imagenet_standard/image_label_full/train-00766-of-01024'
p783
aS'/data2/chengxuz/Dataset/TFRecord_Imagenet_standard/image_label_full/train-00767-of-01024'
p784
aS'/data2/chengxuz/Dataset/TFRecord_Imagenet_standard/image_label_full/train-00768-of-01024'
p785
aS'/data2/chengxuz/Dataset/TFRecord_Imagenet_standard/image_label_full/train-00769-of-01024'
p786
aS'/data2/chengxuz/Dataset/TFRecord_Imagenet_standard/image_label_full/train-00770-of-01024'
p787
aS'/data2/chengxuz/Dataset/TFRecord_Imagenet_standard/image_label_full/train-00771-of-01024'
p788
aS'/data2/chengxuz/Dataset/TFRecord_Imagenet_standard/image_label_full/train-00772-of-01024'
p789
aS'/data2/chengxuz/Dataset/TFRecord_Imagenet_standard/image_label_full/train-00773-of-01024'
p790
aS'/data2/chengxuz/Dataset/TFRecord_Imagenet_standard/image_label_full/train-00774-of-01024'
p791
aS'/data2/chengxuz/Dataset/TFRecord_Imagenet_standard/image_label_full/train-00775-of-01024'
p792
aS'/data2/chengxuz/Dataset/TFRecord_Imagenet_standard/image_label_full/train-00776-of-01024'
p793
aS'/data2/chengxuz/Dataset/TFRecord_Imagenet_standard/image_label_full/train-00777-of-01024'
p794
aS'/data2/chengxuz/Dataset/TFRecord_Imagenet_standard/image_label_full/train-00778-of-01024'
p795
aS'/data2/chengxuz/Dataset/TFRecord_Imagenet_standard/image_label_full/train-00779-of-01024'
p796
aS'/data2/chengxuz/Dataset/TFRecord_Imagenet_standard/image_label_full/train-00780-of-01024'
p797
aS'/data2/chengxuz/Dataset/TFRecord_Imagenet_standard/image_label_full/train-00781-of-01024'
p798
aS'/data2/chengxuz/Dataset/TFRecord_Imagenet_standard/image_label_full/train-00782-of-01024'
p799
aS'/data2/chengxuz/Dataset/TFRecord_Imagenet_standard/image_label_full/train-00783-of-01024'
p800
aS'/data2/chengxuz/Dataset/TFRecord_Imagenet_standard/image_label_full/train-00784-of-01024'
p801
aS'/data2/chengxuz/Dataset/TFRecord_Imagenet_standard/image_label_full/train-00785-of-01024'
p802
aS'/data2/chengxuz/Dataset/TFRecord_Imagenet_standard/image_label_full/train-00786-of-01024'
p803
aS'/data2/chengxuz/Dataset/TFRecord_Imagenet_standard/image_label_full/train-00787-of-01024'
p804
aS'/data2/chengxuz/Dataset/TFRecord_Imagenet_standard/image_label_full/train-00788-of-01024'
p805
aS'/data2/chengxuz/Dataset/TFRecord_Imagenet_standard/image_label_full/train-00789-of-01024'
p806
aS'/data2/chengxuz/Dataset/TFRecord_Imagenet_standard/image_label_full/train-00790-of-01024'
p807
aS'/data2/chengxuz/Dataset/TFRecord_Imagenet_standard/image_label_full/train-00791-of-01024'
p808
aS'/data2/chengxuz/Dataset/TFRecord_Imagenet_standard/image_label_full/train-00792-of-01024'
p809
aS'/data2/chengxuz/Dataset/TFRecord_Imagenet_standard/image_label_full/train-00793-of-01024'
p810
aS'/data2/chengxuz/Dataset/TFRecord_Imagenet_standard/image_label_full/train-00794-of-01024'
p811
aS'/data2/chengxuz/Dataset/TFRecord_Imagenet_standard/image_label_full/train-00795-of-01024'
p812
aS'/data2/chengxuz/Dataset/TFRecord_Imagenet_standard/image_label_full/train-00796-of-01024'
p813
aS'/data2/chengxuz/Dataset/TFRecord_Imagenet_standard/image_label_full/train-00797-of-01024'
p814
aS'/data2/chengxuz/Dataset/TFRecord_Imagenet_standard/image_label_full/train-00798-of-01024'
p815
aS'/data2/chengxuz/Dataset/TFRecord_Imagenet_standard/image_label_full/train-00799-of-01024'
p816
aS'/data2/chengxuz/Dataset/TFRecord_Imagenet_standard/image_label_full/train-00800-of-01024'
p817
aS'/data2/chengxuz/Dataset/TFRecord_Imagenet_standard/image_label_full/train-00801-of-01024'
p818
aS'/data2/chengxuz/Dataset/TFRecord_Imagenet_standard/image_label_full/train-00802-of-01024'
p819
aS'/data2/chengxuz/Dataset/TFRecord_Imagenet_standard/image_label_full/train-00803-of-01024'
p820
aS'/data2/chengxuz/Dataset/TFRecord_Imagenet_standard/image_label_full/train-00804-of-01024'
p821
aS'/data2/chengxuz/Dataset/TFRecord_Imagenet_standard/image_label_full/train-00805-of-01024'
p822
aS'/data2/chengxuz/Dataset/TFRecord_Imagenet_standard/image_label_full/train-00806-of-01024'
p823
aS'/data2/chengxuz/Dataset/TFRecord_Imagenet_standard/image_label_full/train-00807-of-01024'
p824
aS'/data2/chengxuz/Dataset/TFRecord_Imagenet_standard/image_label_full/train-00808-of-01024'
p825
aS'/data2/chengxuz/Dataset/TFRecord_Imagenet_standard/image_label_full/train-00809-of-01024'
p826
aS'/data2/chengxuz/Dataset/TFRecord_Imagenet_standard/image_label_full/train-00810-of-01024'
p827
aS'/data2/chengxuz/Dataset/TFRecord_Imagenet_standard/image_label_full/train-00811-of-01024'
p828
aS'/data2/chengxuz/Dataset/TFRecord_Imagenet_standard/image_label_full/train-00812-of-01024'
p829
aS'/data2/chengxuz/Dataset/TFRecord_Imagenet_standard/image_label_full/train-00813-of-01024'
p830
aS'/data2/chengxuz/Dataset/TFRecord_Imagenet_standard/image_label_full/train-00814-of-01024'
p831
aS'/data2/chengxuz/Dataset/TFRecord_Imagenet_standard/image_label_full/train-00815-of-01024'
p832
atp833
a(I1020929
(lp834
S'/data2/chengxuz/Dataset/TFRecord_Imagenet_standard/image_label_full/train-00816-of-01024'
p835
aS'/data2/chengxuz/Dataset/TFRecord_Imagenet_standard/image_label_full/train-00817-of-01024'
p836
aS'/data2/chengxuz/Dataset/TFRecord_Imagenet_standard/image_label_full/train-00818-of-01024'
p837
aS'/data2/chengxuz/Dataset/TFRecord_Imagenet_standard/image_label_full/train-00819-of-01024'
p838
aS'/data2/chengxuz/Dataset/TFRecord_Imagenet_standard/image_label_full/train-00820-of-01024'
p839
aS'/data2/chengxuz/Dataset/TFRecord_Imagenet_standard/image_label_full/train-00821-of-01024'
p840
aS'/data2/chengxuz/Dataset/TFRecord_Imagenet_standard/image_label_full/train-00822-of-01024'
p841
aS'/data2/chengxuz/Dataset/TFRecord_Imagenet_standard/image_label_full/train-00823-of-01024'
p842
aS'/data2/chengxuz/Dataset/TFRecord_Imagenet_standard/image_label_full/train-00824-of-01024'
p843
aS'/data2/chengxuz/Dataset/TFRecord_Imagenet_standard/image_label_full/train-00825-of-01024'
p844
aS'/data2/chengxuz/Dataset/TFRecord_Imagenet_standard/image_label_full/train-00826-of-01024'
p845
aS'/data2/chengxuz/Dataset/TFRecord_Imagenet_standard/image_label_full/train-00827-of-01024'
p846
aS'/data2/chengxuz/Dataset/TFRecord_Imagenet_standard/image_label_full/train-00828-of-01024'
p847
aS'/data2/chengxuz/Dataset/TFRecord_Imagenet_standard/image_label_full/train-00829-of-01024'
p848
aS'/data2/chengxuz/Dataset/TFRecord_Imagenet_standard/image_label_full/train-00830-of-01024'
p849
aS'/data2/chengxuz/Dataset/TFRecord_Imagenet_standard/image_label_full/train-00831-of-01024'
p850
aS'/data2/chengxuz/Dataset/TFRecord_Imagenet_standard/image_label_full/train-00832-of-01024'
p851
aS'/data2/chengxuz/Dataset/TFRecord_Imagenet_standard/image_label_full/train-00833-of-01024'
p852
aS'/data2/chengxuz/Dataset/TFRecord_Imagenet_standard/image_label_full/train-00834-of-01024'
p853
aS'/data2/chengxuz/Dataset/TFRecord_Imagenet_standard/image_label_full/train-00835-of-01024'
p854
aS'/data2/chengxuz/Dataset/TFRecord_Imagenet_standard/image_label_full/train-00836-of-01024'
p855
aS'/data2/chengxuz/Dataset/TFRecord_Imagenet_standard/image_label_full/train-00837-of-01024'
p856
aS'/data2/chengxuz/Dataset/TFRecord_Imagenet_standard/image_label_full/train-00838-of-01024'
p857
aS'/data2/chengxuz/Dataset/TFRecord_Imagenet_standard/image_label_full/train-00839-of-01024'
p858
aS'/data2/chengxuz/Dataset/TFRecord_Imagenet_standard/image_label_full/train-00840-of-01024'
p859
aS'/data2/chengxuz/Dataset/TFRecord_Imagenet_standard/image_label_full/train-00841-of-01024'
p860
aS'/data2/chengxuz/Dataset/TFRecord_Imagenet_standard/image_label_full/train-00842-of-01024'
p861
aS'/data2/chengxuz/Dataset/TFRecord_Imagenet_standard/image_label_full/train-00843-of-01024'
p862
aS'/data2/chengxuz/Dataset/TFRecord_Imagenet_standard/image_label_full/train-00844-of-01024'
p863
aS'/data2/chengxuz/Dataset/TFRecord_Imagenet_standard/image_label_full/train-00845-of-01024'
p864
aS'/data2/chengxuz/Dataset/TFRecord_Imagenet_standard/image_label_full/train-00846-of-01024'
p865
aS'/data2/chengxuz/Dataset/TFRecord_Imagenet_standard/image_label_full/train-00847-of-01024'
p866
aS'/data2/chengxuz/Dataset/TFRecord_Imagenet_standard/image_label_full/train-00848-of-01024'
p867
aS'/data2/chengxuz/Dataset/TFRecord_Imagenet_standard/image_label_full/train-00849-of-01024'
p868
aS'/data2/chengxuz/Dataset/TFRecord_Imagenet_standard/image_label_full/train-00850-of-01024'
p869
aS'/data2/chengxuz/Dataset/TFRecord_Imagenet_standard/image_label_full/train-00851-of-01024'
p870
aS'/data2/chengxuz/Dataset/TFRecord_Imagenet_standard/image_label_full/train-00852-of-01024'
p871
aS'/data2/chengxuz/Dataset/TFRecord_Imagenet_standard/image_label_full/train-00853-of-01024'
p872
aS'/data2/chengxuz/Dataset/TFRecord_Imagenet_standard/image_label_full/train-00854-of-01024'
p873
aS'/data2/chengxuz/Dataset/TFRecord_Imagenet_standard/image_label_full/train-00855-of-01024'
p874
aS'/data2/chengxuz/Dataset/TFRecord_Imagenet_standard/image_label_full/train-00856-of-01024'
p875
aS'/data2/chengxuz/Dataset/TFRecord_Imagenet_standard/image_label_full/train-00857-of-01024'
p876
aS'/data2/chengxuz/Dataset/TFRecord_Imagenet_standard/image_label_full/train-00858-of-01024'
p877
aS'/data2/chengxuz/Dataset/TFRecord_Imagenet_standard/image_label_full/train-00859-of-01024'
p878
aS'/data2/chengxuz/Dataset/TFRecord_Imagenet_standard/image_label_full/train-00860-of-01024'
p879
aS'/data2/chengxuz/Dataset/TFRecord_Imagenet_standard/image_label_full/train-00861-of-01024'
p880
aS'/data2/chengxuz/Dataset/TFRecord_Imagenet_standard/image_label_full/train-00862-of-01024'
p881
aS'/data2/chengxuz/Dataset/TFRecord_Imagenet_standard/image_label_full/train-00863-of-01024'
p882
aS'/data2/chengxuz/Dataset/TFRecord_Imagenet_standard/image_label_full/train-00864-of-01024'
p883
aS'/data2/chengxuz/Dataset/TFRecord_Imagenet_standard/image_label_full/train-00865-of-01024'
p884
aS'/data2/chengxuz/Dataset/TFRecord_Imagenet_standard/image_label_full/train-00866-of-01024'
p885
aS'/data2/chengxuz/Dataset/TFRecord_Imagenet_standard/image_label_full/train-00867-of-01024'
p886
aS'/data2/chengxuz/Dataset/TFRecord_Imagenet_standard/image_label_full/train-00868-of-01024'
p887
aS'/data2/chengxuz/Dataset/TFRecord_Imagenet_standard/image_label_full/train-00869-of-01024'
p888
aS'/data2/chengxuz/Dataset/TFRecord_Imagenet_standard/image_label_full/train-00870-of-01024'
p889
aS'/data2/chengxuz/Dataset/TFRecord_Imagenet_standard/image_label_full/train-00871-of-01024'
p890
aS'/data2/chengxuz/Dataset/TFRecord_Imagenet_standard/image_label_full/train-00872-of-01024'
p891
aS'/data2/chengxuz/Dataset/TFRecord_Imagenet_standard/image_label_full/train-00873-of-01024'
p892
aS'/data2/chengxuz/Dataset/TFRecord_Imagenet_standard/image_label_full/train-00874-of-01024'
p893
aS'/data2/chengxuz/Dataset/TFRecord_Imagenet_standard/image_label_full/train-00875-of-01024'
p894
aS'/data2/chengxuz/Dataset/TFRecord_Imagenet_standard/image_label_full/train-00876-of-01024'
p895
aS'/data2/chengxuz/Dataset/TFRecord_Imagenet_standard/image_label_full/train-00877-of-01024'
p896
aS'/data2/chengxuz/Dataset/TFRecord_Imagenet_standard/image_label_full/train-00878-of-01024'
p897
aS'/data2/chengxuz/Dataset/TFRecord_Imagenet_standard/image_label_full/train-00879-of-01024'
p898
aS'/data2/chengxuz/Dataset/TFRecord_Imagenet_standard/image_label_full/train-00880-of-01024'
p899
aS'/data2/chengxuz/Dataset/TFRecord_Imagenet_standard/image_label_full/train-00881-of-01024'
p900
aS'/data2/chengxuz/Dataset/TFRecord_Imagenet_standard/image_label_full/train-00882-of-01024'
p901
aS'/data2/chengxuz/Dataset/TFRecord_Imagenet_standard/image_label_full/train-00883-of-01024'
p902
aS'/data2/chengxuz/Dataset/TFRecord_Imagenet_standard/image_label_full/train-00884-of-01024'
p903
aS'/data2/chengxuz/Dataset/TFRecord_Imagenet_standard/image_label_full/train-00885-of-01024'
p904
aS'/data2/chengxuz/Dataset/TFRecord_Imagenet_standard/image_label_full/train-00886-of-01024'
p905
aS'/data2/chengxuz/Dataset/TFRecord_Imagenet_standard/image_label_full/train-00887-of-01024'
p906
aS'/data2/chengxuz/Dataset/TFRecord_Imagenet_standard/image_label_full/train-00888-of-01024'
p907
aS'/data2/chengxuz/Dataset/TFRecord_Imagenet_standard/image_label_full/train-00889-of-01024'
p908
aS'/data2/chengxuz/Dataset/TFRecord_Imagenet_standard/image_label_full/train-00890-of-01024'
p909
aS'/data2/chengxuz/Dataset/TFRecord_Imagenet_standard/image_label_full/train-00891-of-01024'
p910
aS'/data2/chengxuz/Dataset/TFRecord_Imagenet_standard/image_label_full/train-00892-of-01024'
p911
aS'/data2/chengxuz/Dataset/TFRecord_Imagenet_standard/image_label_full/train-00893-of-01024'
p912
aS'/data2/chengxuz/Dataset/TFRecord_Imagenet_standard/image_label_full/train-00894-of-01024'
p913
aS'/data2/chengxuz/Dataset/TFRecord_Imagenet_standard/image_label_full/train-00895-of-01024'
p914
aS'/data2/chengxuz/Dataset/TFRecord_Imagenet_standard/image_label_full/train-00896-of-01024'
p915
aS'/data2/chengxuz/Dataset/TFRecord_Imagenet_standard/image_label_full/train-00897-of-01024'
p916
aS'/data2/chengxuz/Dataset/TFRecord_Imagenet_standard/image_label_full/train-00898-of-01024'
p917
aS'/data2/chengxuz/Dataset/TFRecord_Imagenet_standard/image_label_full/train-00899-of-01024'
p918
aS'/data2/chengxuz/Dataset/TFRecord_Imagenet_standard/image_label_full/train-00900-of-01024'
p919
aS'/data2/chengxuz/Dataset/TFRecord_Imagenet_standard/image_label_full/train-00901-of-01024'
p920
aS'/data2/chengxuz/Dataset/TFRecord_Imagenet_standard/image_label_full/train-00902-of-01024'
p921
aS'/data2/chengxuz/Dataset/TFRecord_Imagenet_standard/image_label_full/train-00903-of-01024'
p922
aS'/data2/chengxuz/Dataset/TFRecord_Imagenet_standard/image_label_full/train-00904-of-01024'
p923
aS'/data2/chengxuz/Dataset/TFRecord_Imagenet_standard/image_label_full/train-00905-of-01024'
p924
aS'/data2/chengxuz/Dataset/TFRecord_Imagenet_standard/image_label_full/train-00906-of-01024'
p925
aS'/data2/chengxuz/Dataset/TFRecord_Imagenet_standard/image_label_full/train-00907-of-01024'
p926
aS'/data2/chengxuz/Dataset/TFRecord_Imagenet_standard/image_label_full/train-00908-of-01024'
p927
aS'/data2/chengxuz/Dataset/TFRecord_Imagenet_standard/image_label_full/train-00909-of-01024'
p928
aS'/data2/chengxuz/Dataset/TFRecord_Imagenet_standard/image_label_full/train-00910-of-01024'
p929
aS'/data2/chengxuz/Dataset/TFRecord_Imagenet_standard/image_label_full/train-00911-of-01024'
p930
aS'/data2/chengxuz/Dataset/TFRecord_Imagenet_standard/image_label_full/train-00912-of-01024'
p931
aS'/data2/chengxuz/Dataset/TFRecord_Imagenet_standard/image_label_full/train-00913-of-01024'
p932
aS'/data2/chengxuz/Dataset/TFRecord_Imagenet_standard/image_label_full/train-00914-of-01024'
p933
aS'/data2/chengxuz/Dataset/TFRecord_Imagenet_standard/image_label_full/train-00915-of-01024'
p934
aS'/data2/chengxuz/Dataset/TFRecord_Imagenet_standard/image_label_full/train-00916-of-01024'
p935
aS'/data2/chengxuz/Dataset/TFRecord_Imagenet_standard/image_label_full/train-00917-of-01024'
p936
atp937
a(I1148546
(lp938
S'/data2/chengxuz/Dataset/TFRecord_Imagenet_standard/image_label_full/train-00918-of-01024'
p939
aS'/data2/chengxuz/Dataset/TFRecord_Imagenet_standard/image_label_full/train-00919-of-01024'
p940
aS'/data2/chengxuz/Dataset/TFRecord_Imagenet_standard/image_label_full/train-00920-of-01024'
p941
aS'/data2/chengxuz/Dataset/TFRecord_Imagenet_standard/image_label_full/train-00921-of-01024'
p942
aS'/data2/chengxuz/Dataset/TFRecord_Imagenet_standard/image_label_full/train-00922-of-01024'
p943
aS'/data2/chengxuz/Dataset/TFRecord_Imagenet_standard/image_label_full/train-00923-of-01024'
p944
aS'/data2/chengxuz/Dataset/TFRecord_Imagenet_standard/image_label_full/train-00924-of-01024'
p945
aS'/data2/chengxuz/Dataset/TFRecord_Imagenet_standard/image_label_full/train-00925-of-01024'
p946
aS'/data2/chengxuz/Dataset/TFRecord_Imagenet_standard/image_label_full/train-00926-of-01024'
p947
aS'/data2/chengxuz/Dataset/TFRecord_Imagenet_standard/image_label_full/train-00927-of-01024'
p948
aS'/data2/chengxuz/Dataset/TFRecord_Imagenet_standard/image_label_full/train-00928-of-01024'
p949
aS'/data2/chengxuz/Dataset/TFRecord_Imagenet_standard/image_label_full/train-00929-of-01024'
p950
aS'/data2/chengxuz/Dataset/TFRecord_Imagenet_standard/image_label_full/train-00930-of-01024'
p951
aS'/data2/chengxuz/Dataset/TFRecord_Imagenet_standard/image_label_full/train-00931-of-01024'
p952
aS'/data2/chengxuz/Dataset/TFRecord_Imagenet_standard/image_label_full/train-00932-of-01024'
p953
aS'/data2/chengxuz/Dataset/TFRecord_Imagenet_standard/image_label_full/train-00933-of-01024'
p954
aS'/data2/chengxuz/Dataset/TFRecord_Imagenet_standard/image_label_full/train-00934-of-01024'
p955
aS'/data2/chengxuz/Dataset/TFRecord_Imagenet_standard/image_label_full/train-00935-of-01024'
p956
aS'/data2/chengxuz/Dataset/TFRecord_Imagenet_standard/image_label_full/train-00936-of-01024'
p957
aS'/data2/chengxuz/Dataset/TFRecord_Imagenet_standard/image_label_full/train-00937-of-01024'
p958
aS'/data2/chengxuz/Dataset/TFRecord_Imagenet_standard/image_label_full/train-00938-of-01024'
p959
aS'/data2/chengxuz/Dataset/TFRecord_Imagenet_standard/image_label_full/train-00939-of-01024'
p960
aS'/data2/chengxuz/Dataset/TFRecord_Imagenet_standard/image_label_full/train-00940-of-01024'
p961
aS'/data2/chengxuz/Dataset/TFRecord_Imagenet_standard/image_label_full/train-00941-of-01024'
p962
aS'/data2/chengxuz/Dataset/TFRecord_Imagenet_standard/image_label_full/train-00942-of-01024'
p963
aS'/data2/chengxuz/Dataset/TFRecord_Imagenet_standard/image_label_full/train-00943-of-01024'
p964
aS'/data2/chengxuz/Dataset/TFRecord_Imagenet_standard/image_label_full/train-00944-of-01024'
p965
aS'/data2/chengxuz/Dataset/TFRecord_Imagenet_standard/image_label_full/train-00945-of-01024'
p966
aS'/data2/chengxuz/Dataset/TFRecord_Imagenet_standard/image_label_full/train-00946-of-01024'
p967
aS'/data2/chengxuz/Dataset/TFRecord_Imagenet_standard/image_label_full/train-00947-of-01024'
p968
aS'/data2/chengxuz/Dataset/TFRecord_Imagenet_standard/image_label_full/train-00948-of-01024'
p969
aS'/data2/chengxuz/Dataset/TFRecord_Imagenet_standard/image_label_full/train-00949-of-01024'
p970
aS'/data2/chengxuz/Dataset/TFRecord_Imagenet_standard/image_label_full/train-00950-of-01024'
p971
aS'/data2/chengxuz/Dataset/TFRecord_Imagenet_standard/image_label_full/train-00951-of-01024'
p972
aS'/data2/chengxuz/Dataset/TFRecord_Imagenet_standard/image_label_full/train-00952-of-01024'
p973
aS'/data2/chengxuz/Dataset/TFRecord_Imagenet_standard/image_label_full/train-00953-of-01024'
p974
aS'/data2/chengxuz/Dataset/TFRecord_Imagenet_standard/image_label_full/train-00954-of-01024'
p975
aS'/data2/chengxuz/Dataset/TFRecord_Imagenet_standard/image_label_full/train-00955-of-01024'
p976
aS'/data2/chengxuz/Dataset/TFRecord_Imagenet_standard/image_label_full/train-00956-of-01024'
p977
aS'/data2/chengxuz/Dataset/TFRecord_Imagenet_standard/image_label_full/train-00957-of-01024'
p978
aS'/data2/chengxuz/Dataset/TFRecord_Imagenet_standard/image_label_full/train-00958-of-01024'
p979
aS'/data2/chengxuz/Dataset/TFRecord_Imagenet_standard/image_label_full/train-00959-of-01024'
p980
aS'/data2/chengxuz/Dataset/TFRecord_Imagenet_standard/image_label_full/train-00960-of-01024'
p981
aS'/data2/chengxuz/Dataset/TFRecord_Imagenet_standard/image_label_full/train-00961-of-01024'
p982
aS'/data2/chengxuz/Dataset/TFRecord_Imagenet_standard/image_label_full/train-00962-of-01024'
p983
aS'/data2/chengxuz/Dataset/TFRecord_Imagenet_standard/image_label_full/train-00963-of-01024'
p984
aS'/data2/chengxuz/Dataset/TFRecord_Imagenet_standard/image_label_full/train-00964-of-01024'
p985
aS'/data2/chengxuz/Dataset/TFRecord_Imagenet_standard/image_label_full/train-00965-of-01024'
p986
aS'/data2/chengxuz/Dataset/TFRecord_Imagenet_standard/image_label_full/train-00966-of-01024'
p987
aS'/data2/chengxuz/Dataset/TFRecord_Imagenet_standard/image_label_full/train-00967-of-01024'
p988
aS'/data2/chengxuz/Dataset/TFRecord_Imagenet_standard/image_label_full/train-00968-of-01024'
p989
aS'/data2/chengxuz/Dataset/TFRecord_Imagenet_standard/image_label_full/train-00969-of-01024'
p990
aS'/data2/chengxuz/Dataset/TFRecord_Imagenet_standard/image_label_full/train-00970-of-01024'
p991
aS'/data2/chengxuz/Dataset/TFRecord_Imagenet_standard/image_label_full/train-00971-of-01024'
p992
aS'/data2/chengxuz/Dataset/TFRecord_Imagenet_standard/image_label_full/train-00972-of-01024'
p993
aS'/data2/chengxuz/Dataset/TFRecord_Imagenet_standard/image_label_full/train-00973-of-01024'
p994
aS'/data2/chengxuz/Dataset/TFRecord_Imagenet_standard/image_label_full/train-00974-of-01024'
p995
aS'/data2/chengxuz/Dataset/TFRecord_Imagenet_standard/image_label_full/train-00975-of-01024'
p996
aS'/data2/chengxuz/Dataset/TFRecord_Imagenet_standard/image_label_full/train-00976-of-01024'
p997
aS'/data2/chengxuz/Dataset/TFRecord_Imagenet_standard/image_label_full/train-00977-of-01024'
p998
aS'/data2/chengxuz/Dataset/TFRecord_Imagenet_standard/image_label_full/train-00978-of-01024'
p999
aS'/data2/chengxuz/Dataset/TFRecord_Imagenet_standard/image_label_full/train-00979-of-01024'
p1000
aS'/data2/chengxuz/Dataset/TFRecord_Imagenet_standard/image_label_full/train-00980-of-01024'
p1001
aS'/data2/chengxuz/Dataset/TFRecord_Imagenet_standard/image_label_full/train-00981-of-01024'
p1002
aS'/data2/chengxuz/Dataset/TFRecord_Imagenet_standard/image_label_full/train-00982-of-01024'
p1003
aS'/data2/chengxuz/Dataset/TFRecord_Imagenet_standard/image_label_full/train-00983-of-01024'
p1004
aS'/data2/chengxuz/Dataset/TFRecord_Imagenet_standard/image_label_full/train-00984-of-01024'
p1005
aS'/data2/chengxuz/Dataset/TFRecord_Imagenet_standard/image_label_full/train-00985-of-01024'
p1006
aS'/data2/chengxuz/Dataset/TFRecord_Imagenet_standard/image_label_full/train-00986-of-01024'
p1007
aS'/data2/chengxuz/Dataset/TFRecord_Imagenet_standard/image_label_full/train-00987-of-01024'
p1008
aS'/data2/chengxuz/Dataset/TFRecord_Imagenet_standard/image_label_full/train-00988-of-01024'
p1009
aS'/data2/chengxuz/Dataset/TFRecord_Imagenet_standard/image_label_full/train-00989-of-01024'
p1010
aS'/data2/chengxuz/Dataset/TFRecord_Imagenet_standard/image_label_full/train-00990-of-01024'
p1011
aS'/data2/chengxuz/Dataset/TFRecord_Imagenet_standard/image_label_full/train-00991-of-01024'
p1012
aS'/data2/chengxuz/Dataset/TFRecord_Imagenet_standard/image_label_full/train-00992-of-01024'
p1013
aS'/data2/chengxuz/Dataset/TFRecord_Imagenet_standard/image_label_full/train-00993-of-01024'
p1014
aS'/data2/chengxuz/Dataset/TFRecord_Imagenet_standard/image_label_full/train-00994-of-01024'
p1015
aS'/data2/chengxuz/Dataset/TFRecord_Imagenet_standard/image_label_full/train-00995-of-01024'
p1016
aS'/data2/chengxuz/Dataset/TFRecord_Imagenet_standard/image_label_full/train-00996-of-01024'
p1017
aS'/data2/chengxuz/Dataset/TFRecord_Imagenet_standard/image_label_full/train-00997-of-01024'
p1018
aS'/data2/chengxuz/Dataset/TFRecord_Imagenet_standard/image_label_full/train-00998-of-01024'
p1019
aS'/data2/chengxuz/Dataset/TFRecord_Imagenet_standard/image_label_full/train-00999-of-01024'
p1020
aS'/data2/chengxuz/Dataset/TFRecord_Imagenet_standard/image_label_full/train-01000-of-01024'
p1021
aS'/data2/chengxuz/Dataset/TFRecord_Imagenet_standard/image_label_full/train-01001-of-01024'
p1022
aS'/data2/chengxuz/Dataset/TFRecord_Imagenet_standard/image_label_full/train-01002-of-01024'
p1023
aS'/data2/chengxuz/Dataset/TFRecord_Imagenet_standard/image_label_full/train-01003-of-01024'
p1024
aS'/data2/chengxuz/Dataset/TFRecord_Imagenet_standard/image_label_full/train-01004-of-01024'
p1025
aS'/data2/chengxuz/Dataset/TFRecord_Imagenet_standard/image_label_full/train-01005-of-01024'
p1026
aS'/data2/chengxuz/Dataset/TFRecord_Imagenet_standard/image_label_full/train-01006-of-01024'
p1027
aS'/data2/chengxuz/Dataset/TFRecord_Imagenet_standard/image_label_full/train-01007-of-01024'
p1028
aS'/data2/chengxuz/Dataset/TFRecord_Imagenet_standard/image_label_full/train-01008-of-01024'
p1029
aS'/data2/chengxuz/Dataset/TFRecord_Imagenet_standard/image_label_full/train-01009-of-01024'
p1030
aS'/data2/chengxuz/Dataset/TFRecord_Imagenet_standard/image_label_full/train-01010-of-01024'
p1031
aS'/data2/chengxuz/Dataset/TFRecord_Imagenet_standard/image_label_full/train-01011-of-01024'
p1032
aS'/data2/chengxuz/Dataset/TFRecord_Imagenet_standard/image_label_full/train-01012-of-01024'
p1033
aS'/data2/chengxuz/Dataset/TFRecord_Imagenet_standard/image_label_full/train-01013-of-01024'
p1034
aS'/data2/chengxuz/Dataset/TFRecord_Imagenet_standard/image_label_full/train-01014-of-01024'
p1035
aS'/data2/chengxuz/Dataset/TFRecord_Imagenet_standard/image_label_full/train-01015-of-01024'
p1036
aS'/data2/chengxuz/Dataset/TFRecord_Imagenet_standard/image_label_full/train-01016-of-01024'
p1037
aS'/data2/chengxuz/Dataset/TFRecord_Imagenet_standard/image_label_full/train-01017-of-01024'
p1038
aS'/data2/chengxuz/Dataset/TFRecord_Imagenet_standard/image_label_full/train-01018-of-01024'
p1039
aS'/data2/chengxuz/Dataset/TFRecord_Imagenet_standard/image_label_full/train-01019-of-01024'
p1040
aS'/data2/chengxuz/Dataset/TFRecord_Imagenet_standard/image_label_full/train-01020-of-01024'
p1041
aS'/data2/chengxuz/Dataset/TFRecord_Imagenet_standard/image_label_full/train-01021-of-01024'
p1042
aS'/data2/chengxuz/Dataset/TFRecord_Imagenet_standard/image_label_full/train-01022-of-01024'
p1043
aS'/data2/chengxuz/Dataset/TFRecord_Imagenet_standard/image_label_full/train-01023-of-01024'
p1044
atp1045
a.